Archive member included to satisfy reference by file (symbol)

/usr/local/bin/../lib/gcc/arm-none-eabi/10.2.1/thumb/v7e-m+fp/hard/libgcc.a(_arm_muldf3.o)
                              build/adc_example.o (__aeabi_dmul)
/usr/local/bin/../lib/gcc/arm-none-eabi/10.2.1/thumb/v7e-m+fp/hard/libgcc.a(_arm_addsubdf3.o)
                              build/adc_example.o (__aeabi_ui2d)
/usr/local/bin/../lib/gcc/arm-none-eabi/10.2.1/thumb/v7e-m+fp/hard/libgcc.a(_arm_fixdfsi.o)
                              build/adc_example.o (__aeabi_d2iz)
/usr/local/bin/../lib/gcc/arm-none-eabi/10.2.1/thumb/v7e-m+fp/hard/libgcc.a(_aeabi_ldivmod.o)
                              build/cubemx_stm32f411/Drivers/STM32F4xx_HAL_Driver/Src/stm32f4xx_hal_rcc.o (__aeabi_ldivmod)
/usr/local/bin/../lib/gcc/arm-none-eabi/10.2.1/thumb/v7e-m+fp/hard/libgcc.a(_aeabi_uldivmod.o)
                              build/cubemx_stm32f411/Drivers/STM32F4xx_HAL_Driver/Src/stm32f4xx_hal_rcc.o (__aeabi_uldivmod)
/usr/local/bin/../lib/gcc/arm-none-eabi/10.2.1/thumb/v7e-m+fp/hard/libgcc.a(_udivmoddi4.o)
                              /usr/local/bin/../lib/gcc/arm-none-eabi/10.2.1/thumb/v7e-m+fp/hard/libgcc.a(_aeabi_ldivmod.o) (__udivmoddi4)
/usr/local/bin/../lib/gcc/arm-none-eabi/10.2.1/thumb/v7e-m+fp/hard/libgcc.a(_dvmd_tls.o)
                              /usr/local/bin/../lib/gcc/arm-none-eabi/10.2.1/thumb/v7e-m+fp/hard/libgcc.a(_aeabi_ldivmod.o) (__aeabi_ldiv0)
/usr/local/bin/../lib/gcc/arm-none-eabi/10.2.1/../../../../arm-none-eabi/lib/thumb/v7e-m+fp/hard/libg_nano.a(lib_a-ctype_.o)
                              build/monitor/parser.o (_ctype_)
/usr/local/bin/../lib/gcc/arm-none-eabi/10.2.1/../../../../arm-none-eabi/lib/thumb/v7e-m+fp/hard/libg_nano.a(lib_a-errno.o)
                              build/syscall.o (__errno)
/usr/local/bin/../lib/gcc/arm-none-eabi/10.2.1/../../../../arm-none-eabi/lib/thumb/v7e-m+fp/hard/libg_nano.a(lib_a-exit.o)
                              /usr/local/bin/../lib/gcc/arm-none-eabi/10.2.1/../../../../arm-none-eabi/lib/thumb/v7e-m+fp/hard/crt0.o (exit)
/usr/local/bin/../lib/gcc/arm-none-eabi/10.2.1/../../../../arm-none-eabi/lib/thumb/v7e-m+fp/hard/libg_nano.a(lib_a-fflush.o)
                              build/adc_example.o (fflush)
/usr/local/bin/../lib/gcc/arm-none-eabi/10.2.1/../../../../arm-none-eabi/lib/thumb/v7e-m+fp/hard/libg_nano.a(lib_a-findfp.o)
                              /usr/local/bin/../lib/gcc/arm-none-eabi/10.2.1/../../../../arm-none-eabi/lib/thumb/v7e-m+fp/hard/libg_nano.a(lib_a-fflush.o) (__sinit)
/usr/local/bin/../lib/gcc/arm-none-eabi/10.2.1/../../../../arm-none-eabi/lib/thumb/v7e-m+fp/hard/libg_nano.a(lib_a-fwalk.o)
                              /usr/local/bin/../lib/gcc/arm-none-eabi/10.2.1/../../../../arm-none-eabi/lib/thumb/v7e-m+fp/hard/libg_nano.a(lib_a-findfp.o) (_fwalk)
/usr/local/bin/../lib/gcc/arm-none-eabi/10.2.1/../../../../arm-none-eabi/lib/thumb/v7e-m+fp/hard/libg_nano.a(lib_a-impure.o)
                              /usr/local/bin/../lib/gcc/arm-none-eabi/10.2.1/../../../../arm-none-eabi/lib/thumb/v7e-m+fp/hard/libg_nano.a(lib_a-exit.o) (_global_impure_ptr)
/usr/local/bin/../lib/gcc/arm-none-eabi/10.2.1/../../../../arm-none-eabi/lib/thumb/v7e-m+fp/hard/libg_nano.a(lib_a-init.o)
                              /usr/local/bin/../lib/gcc/arm-none-eabi/10.2.1/../../../../arm-none-eabi/lib/thumb/v7e-m+fp/hard/crt0.o (__libc_init_array)
/usr/local/bin/../lib/gcc/arm-none-eabi/10.2.1/../../../../arm-none-eabi/lib/thumb/v7e-m+fp/hard/libg_nano.a(lib_a-lock.o)
                              /usr/local/bin/../lib/gcc/arm-none-eabi/10.2.1/../../../../arm-none-eabi/lib/thumb/v7e-m+fp/hard/libg_nano.a(lib_a-findfp.o) (__retarget_lock_init_recursive)
/usr/local/bin/../lib/gcc/arm-none-eabi/10.2.1/../../../../arm-none-eabi/lib/thumb/v7e-m+fp/hard/libg_nano.a(lib_a-memset.o)
                              /usr/local/bin/../lib/gcc/arm-none-eabi/10.2.1/../../../../arm-none-eabi/lib/thumb/v7e-m+fp/hard/crt0.o (memset)
/usr/local/bin/../lib/gcc/arm-none-eabi/10.2.1/../../../../arm-none-eabi/lib/thumb/v7e-m+fp/hard/libg_nano.a(lib_a-nano-freer.o)
                              /usr/local/bin/../lib/gcc/arm-none-eabi/10.2.1/../../../../arm-none-eabi/lib/thumb/v7e-m+fp/hard/libg_nano.a(lib_a-fflush.o) (_free_r)
/usr/local/bin/../lib/gcc/arm-none-eabi/10.2.1/../../../../arm-none-eabi/lib/thumb/v7e-m+fp/hard/libg_nano.a(lib_a-nano-mallocr.o)
                              /usr/local/bin/../lib/gcc/arm-none-eabi/10.2.1/../../../../arm-none-eabi/lib/thumb/v7e-m+fp/hard/libg_nano.a(lib_a-findfp.o) (_malloc_r)
/usr/local/bin/../lib/gcc/arm-none-eabi/10.2.1/../../../../arm-none-eabi/lib/thumb/v7e-m+fp/hard/libg_nano.a(lib_a-nano-vfprintf_float.o)
                              (_printf_float)
/usr/local/bin/../lib/gcc/arm-none-eabi/10.2.1/../../../../arm-none-eabi/lib/thumb/v7e-m+fp/hard/libg_nano.a(lib_a-nano-vfprintf_i.o)
                              /usr/local/bin/../lib/gcc/arm-none-eabi/10.2.1/../../../../arm-none-eabi/lib/thumb/v7e-m+fp/hard/libg_nano.a(lib_a-nano-vfprintf_float.o) (_printf_common)
/usr/local/bin/../lib/gcc/arm-none-eabi/10.2.1/../../../../arm-none-eabi/lib/thumb/v7e-m+fp/hard/libg_nano.a(lib_a-printf.o)
                              build/my_main.o (printf)
/usr/local/bin/../lib/gcc/arm-none-eabi/10.2.1/../../../../arm-none-eabi/lib/thumb/v7e-m+fp/hard/libg_nano.a(lib_a-putchar.o)
                              build/adc_example.o (putchar)
/usr/local/bin/../lib/gcc/arm-none-eabi/10.2.1/../../../../arm-none-eabi/lib/thumb/v7e-m+fp/hard/libg_nano.a(lib_a-puts.o)
                              build/my_main.o (puts)
/usr/local/bin/../lib/gcc/arm-none-eabi/10.2.1/../../../../arm-none-eabi/lib/thumb/v7e-m+fp/hard/libg_nano.a(lib_a-setvbuf.o)
                              build/monitor/terminal.o (setvbuf)
/usr/local/bin/../lib/gcc/arm-none-eabi/10.2.1/../../../../arm-none-eabi/lib/thumb/v7e-m+fp/hard/libg_nano.a(lib_a-stdio.o)
                              /usr/local/bin/../lib/gcc/arm-none-eabi/10.2.1/../../../../arm-none-eabi/lib/thumb/v7e-m+fp/hard/libg_nano.a(lib_a-findfp.o) (__sread)
/usr/local/bin/../lib/gcc/arm-none-eabi/10.2.1/../../../../arm-none-eabi/lib/thumb/v7e-m+fp/hard/libg_nano.a(lib_a-strcasecmp.o)
                              build/monitor/parser.o (strcasecmp)
/usr/local/bin/../lib/gcc/arm-none-eabi/10.2.1/../../../../arm-none-eabi/lib/thumb/v7e-m+fp/hard/libg_nano.a(lib_a-strchr.o)
                              build/monitor/parser.o (strchr)
/usr/local/bin/../lib/gcc/arm-none-eabi/10.2.1/../../../../arm-none-eabi/lib/thumb/v7e-m+fp/hard/libg_nano.a(lib_a-strcpy.o)
                              build/monitor/parser.o (strcpy)
/usr/local/bin/../lib/gcc/arm-none-eabi/10.2.1/../../../../arm-none-eabi/lib/thumb/v7e-m+fp/hard/libg_nano.a(lib_a-strlen.o)
                              build/monitor/parser.o (strlen)
/usr/local/bin/../lib/gcc/arm-none-eabi/10.2.1/../../../../arm-none-eabi/lib/thumb/v7e-m+fp/hard/libg_nano.a(lib_a-strtod.o)
                              build/monitor/parser.o (strtod)
/usr/local/bin/../lib/gcc/arm-none-eabi/10.2.1/../../../../arm-none-eabi/lib/thumb/v7e-m+fp/hard/libg_nano.a(lib_a-strtok.o)
                              build/monitor/parser.o (strtok)
/usr/local/bin/../lib/gcc/arm-none-eabi/10.2.1/../../../../arm-none-eabi/lib/thumb/v7e-m+fp/hard/libg_nano.a(lib_a-strtok_r.o)
                              /usr/local/bin/../lib/gcc/arm-none-eabi/10.2.1/../../../../arm-none-eabi/lib/thumb/v7e-m+fp/hard/libg_nano.a(lib_a-strtok.o) (__strtok_r)
/usr/local/bin/../lib/gcc/arm-none-eabi/10.2.1/../../../../arm-none-eabi/lib/thumb/v7e-m+fp/hard/libg_nano.a(lib_a-strtol.o)
                              build/monitor/parser.o (strtol)
/usr/local/bin/../lib/gcc/arm-none-eabi/10.2.1/../../../../arm-none-eabi/lib/thumb/v7e-m+fp/hard/libg_nano.a(lib_a-strtoul.o)
                              build/monitor/parser.o (strtoul)
/usr/local/bin/../lib/gcc/arm-none-eabi/10.2.1/../../../../arm-none-eabi/lib/thumb/v7e-m+fp/hard/libg_nano.a(lib_a-vsnprintf.o)
                              build/monitor/terminal.o (vsnprintf)
/usr/local/bin/../lib/gcc/arm-none-eabi/10.2.1/../../../../arm-none-eabi/lib/thumb/v7e-m+fp/hard/libg_nano.a(lib_a-wbuf.o)
                              /usr/local/bin/../lib/gcc/arm-none-eabi/10.2.1/../../../../arm-none-eabi/lib/thumb/v7e-m+fp/hard/libg_nano.a(lib_a-puts.o) (__swbuf_r)
/usr/local/bin/../lib/gcc/arm-none-eabi/10.2.1/../../../../arm-none-eabi/lib/thumb/v7e-m+fp/hard/libg_nano.a(lib_a-wsetup.o)
                              /usr/local/bin/../lib/gcc/arm-none-eabi/10.2.1/../../../../arm-none-eabi/lib/thumb/v7e-m+fp/hard/libg_nano.a(lib_a-puts.o) (__swsetup_r)
/usr/local/bin/../lib/gcc/arm-none-eabi/10.2.1/../../../../arm-none-eabi/lib/thumb/v7e-m+fp/hard/libg_nano.a(lib_a-assert.o)
                              /usr/local/bin/../lib/gcc/arm-none-eabi/10.2.1/../../../../arm-none-eabi/lib/thumb/v7e-m+fp/hard/libg_nano.a(lib_a-strtok.o) (__assert_func)
/usr/local/bin/../lib/gcc/arm-none-eabi/10.2.1/../../../../arm-none-eabi/lib/thumb/v7e-m+fp/hard/libg_nano.a(lib_a-dtoa.o)
                              /usr/local/bin/../lib/gcc/arm-none-eabi/10.2.1/../../../../arm-none-eabi/lib/thumb/v7e-m+fp/hard/libg_nano.a(lib_a-nano-vfprintf_float.o) (_dtoa_r)
/usr/local/bin/../lib/gcc/arm-none-eabi/10.2.1/../../../../arm-none-eabi/lib/thumb/v7e-m+fp/hard/libg_nano.a(lib_a-fprintf.o)
                              /usr/local/bin/../lib/gcc/arm-none-eabi/10.2.1/../../../../arm-none-eabi/lib/thumb/v7e-m+fp/hard/libg_nano.a(lib_a-assert.o) (fiprintf)
/usr/local/bin/../lib/gcc/arm-none-eabi/10.2.1/../../../../arm-none-eabi/lib/thumb/v7e-m+fp/hard/libg_nano.a(lib_a-gdtoa-gethex.o)
                              /usr/local/bin/../lib/gcc/arm-none-eabi/10.2.1/../../../../arm-none-eabi/lib/thumb/v7e-m+fp/hard/libg_nano.a(lib_a-strtod.o) (__gethex)
/usr/local/bin/../lib/gcc/arm-none-eabi/10.2.1/../../../../arm-none-eabi/lib/thumb/v7e-m+fp/hard/libg_nano.a(lib_a-gdtoa-hexnan.o)
                              /usr/local/bin/../lib/gcc/arm-none-eabi/10.2.1/../../../../arm-none-eabi/lib/thumb/v7e-m+fp/hard/libg_nano.a(lib_a-strtod.o) (__match)
/usr/local/bin/../lib/gcc/arm-none-eabi/10.2.1/../../../../arm-none-eabi/lib/thumb/v7e-m+fp/hard/libg_nano.a(lib_a-lnumeric.o)
                              /usr/local/bin/../lib/gcc/arm-none-eabi/10.2.1/../../../../arm-none-eabi/lib/thumb/v7e-m+fp/hard/libg_nano.a(lib_a-strtod.o) (_C_numeric_locale)
/usr/local/bin/../lib/gcc/arm-none-eabi/10.2.1/../../../../arm-none-eabi/lib/thumb/v7e-m+fp/hard/libg_nano.a(lib_a-locale.o)
                              /usr/local/bin/../lib/gcc/arm-none-eabi/10.2.1/../../../../arm-none-eabi/lib/thumb/v7e-m+fp/hard/libg_nano.a(lib_a-strtod.o) (__global_locale)
/usr/local/bin/../lib/gcc/arm-none-eabi/10.2.1/../../../../arm-none-eabi/lib/thumb/v7e-m+fp/hard/libg_nano.a(lib_a-localeconv.o)
                              /usr/local/bin/../lib/gcc/arm-none-eabi/10.2.1/../../../../arm-none-eabi/lib/thumb/v7e-m+fp/hard/libg_nano.a(lib_a-nano-vfprintf_float.o) (_localeconv_r)
/usr/local/bin/../lib/gcc/arm-none-eabi/10.2.1/../../../../arm-none-eabi/lib/thumb/v7e-m+fp/hard/libg_nano.a(lib_a-makebuf.o)
                              /usr/local/bin/../lib/gcc/arm-none-eabi/10.2.1/../../../../arm-none-eabi/lib/thumb/v7e-m+fp/hard/libg_nano.a(lib_a-setvbuf.o) (__swhatbuf_r)
/usr/local/bin/../lib/gcc/arm-none-eabi/10.2.1/../../../../arm-none-eabi/lib/thumb/v7e-m+fp/hard/libg_nano.a(lib_a-malloc.o)
                              /usr/local/bin/../lib/gcc/arm-none-eabi/10.2.1/../../../../arm-none-eabi/lib/thumb/v7e-m+fp/hard/libg_nano.a(lib_a-setvbuf.o) (malloc)
/usr/local/bin/../lib/gcc/arm-none-eabi/10.2.1/../../../../arm-none-eabi/lib/thumb/v7e-m+fp/hard/libg_nano.a(lib_a-mbtowc_r.o)
                              /usr/local/bin/../lib/gcc/arm-none-eabi/10.2.1/../../../../arm-none-eabi/lib/thumb/v7e-m+fp/hard/libg_nano.a(lib_a-locale.o) (__ascii_mbtowc)
/usr/local/bin/../lib/gcc/arm-none-eabi/10.2.1/../../../../arm-none-eabi/lib/thumb/v7e-m+fp/hard/libg_nano.a(lib_a-memchr.o)
                              /usr/local/bin/../lib/gcc/arm-none-eabi/10.2.1/../../../../arm-none-eabi/lib/thumb/v7e-m+fp/hard/libg_nano.a(lib_a-nano-vfprintf_i.o) (memchr)
/usr/local/bin/../lib/gcc/arm-none-eabi/10.2.1/../../../../arm-none-eabi/lib/thumb/v7e-m+fp/hard/libg_nano.a(lib_a-memcpy-stub.o)
                              /usr/local/bin/../lib/gcc/arm-none-eabi/10.2.1/../../../../arm-none-eabi/lib/thumb/v7e-m+fp/hard/libg_nano.a(lib_a-strtod.o) (memcpy)
/usr/local/bin/../lib/gcc/arm-none-eabi/10.2.1/../../../../arm-none-eabi/lib/thumb/v7e-m+fp/hard/libg_nano.a(lib_a-mlock.o)
                              /usr/local/bin/../lib/gcc/arm-none-eabi/10.2.1/../../../../arm-none-eabi/lib/thumb/v7e-m+fp/hard/libg_nano.a(lib_a-nano-freer.o) (__malloc_lock)
/usr/local/bin/../lib/gcc/arm-none-eabi/10.2.1/../../../../arm-none-eabi/lib/thumb/v7e-m+fp/hard/libg_nano.a(lib_a-mprec.o)
                              /usr/local/bin/../lib/gcc/arm-none-eabi/10.2.1/../../../../arm-none-eabi/lib/thumb/v7e-m+fp/hard/libg_nano.a(lib_a-strtod.o) (_Balloc)
/usr/local/bin/../lib/gcc/arm-none-eabi/10.2.1/../../../../arm-none-eabi/lib/thumb/v7e-m+fp/hard/libg_nano.a(lib_a-nano-callocr.o)
                              /usr/local/bin/../lib/gcc/arm-none-eabi/10.2.1/../../../../arm-none-eabi/lib/thumb/v7e-m+fp/hard/libg_nano.a(lib_a-mprec.o) (_calloc_r)
/usr/local/bin/../lib/gcc/arm-none-eabi/10.2.1/../../../../arm-none-eabi/lib/thumb/v7e-m+fp/hard/libg_nano.a(lib_a-nano-svfprintf.o)
                              /usr/local/bin/../lib/gcc/arm-none-eabi/10.2.1/../../../../arm-none-eabi/lib/thumb/v7e-m+fp/hard/libg_nano.a(lib_a-vsnprintf.o) (_svfprintf_r)
/usr/local/bin/../lib/gcc/arm-none-eabi/10.2.1/../../../../arm-none-eabi/lib/thumb/v7e-m+fp/hard/libg_nano.a(lib_a-nano-vfprintf.o)
                              /usr/local/bin/../lib/gcc/arm-none-eabi/10.2.1/../../../../arm-none-eabi/lib/thumb/v7e-m+fp/hard/libg_nano.a(lib_a-printf.o) (_vfprintf_r)
/usr/local/bin/../lib/gcc/arm-none-eabi/10.2.1/../../../../arm-none-eabi/lib/thumb/v7e-m+fp/hard/libg_nano.a(lib_a-putc.o)
                              /usr/local/bin/../lib/gcc/arm-none-eabi/10.2.1/../../../../arm-none-eabi/lib/thumb/v7e-m+fp/hard/libg_nano.a(lib_a-putchar.o) (_putc_r)
/usr/local/bin/../lib/gcc/arm-none-eabi/10.2.1/../../../../arm-none-eabi/lib/thumb/v7e-m+fp/hard/libg_nano.a(lib_a-s_nan.o)
                              /usr/local/bin/../lib/gcc/arm-none-eabi/10.2.1/../../../../arm-none-eabi/lib/thumb/v7e-m+fp/hard/libg_nano.a(lib_a-strtod.o) (nan)
/usr/local/bin/../lib/gcc/arm-none-eabi/10.2.1/../../../../arm-none-eabi/lib/thumb/v7e-m+fp/hard/libg_nano.a(lib_a-sf_nan.o)
                              /usr/local/bin/../lib/gcc/arm-none-eabi/10.2.1/../../../../arm-none-eabi/lib/thumb/v7e-m+fp/hard/libg_nano.a(lib_a-strtod.o) (nanf)
/usr/local/bin/../lib/gcc/arm-none-eabi/10.2.1/../../../../arm-none-eabi/lib/thumb/v7e-m+fp/hard/libg_nano.a(lib_a-strcmp.o)
                              /usr/local/bin/../lib/gcc/arm-none-eabi/10.2.1/../../../../arm-none-eabi/lib/thumb/v7e-m+fp/hard/libg_nano.a(lib_a-locale.o) (strcmp)
/usr/local/bin/../lib/gcc/arm-none-eabi/10.2.1/../../../../arm-none-eabi/lib/thumb/v7e-m+fp/hard/libg_nano.a(lib_a-strncmp.o)
                              /usr/local/bin/../lib/gcc/arm-none-eabi/10.2.1/../../../../arm-none-eabi/lib/thumb/v7e-m+fp/hard/libg_nano.a(lib_a-strtod.o) (strncmp)
/usr/local/bin/../lib/gcc/arm-none-eabi/10.2.1/../../../../arm-none-eabi/lib/thumb/v7e-m+fp/hard/libg_nano.a(lib_a-wctomb_r.o)
                              /usr/local/bin/../lib/gcc/arm-none-eabi/10.2.1/../../../../arm-none-eabi/lib/thumb/v7e-m+fp/hard/libg_nano.a(lib_a-locale.o) (__ascii_wctomb)
/usr/local/bin/../lib/gcc/arm-none-eabi/10.2.1/../../../../arm-none-eabi/lib/thumb/v7e-m+fp/hard/libg_nano.a(lib_a-abort.o)
                              /usr/local/bin/../lib/gcc/arm-none-eabi/10.2.1/../../../../arm-none-eabi/lib/thumb/v7e-m+fp/hard/libg_nano.a(lib_a-assert.o) (abort)
/usr/local/bin/../lib/gcc/arm-none-eabi/10.2.1/../../../../arm-none-eabi/lib/thumb/v7e-m+fp/hard/libg_nano.a(lib_a-fvwrite.o)
                              /usr/local/bin/../lib/gcc/arm-none-eabi/10.2.1/../../../../arm-none-eabi/lib/thumb/v7e-m+fp/hard/libg_nano.a(lib_a-nano-vfprintf.o) (__sfvwrite_r)
/usr/local/bin/../lib/gcc/arm-none-eabi/10.2.1/../../../../arm-none-eabi/lib/thumb/v7e-m+fp/hard/libg_nano.a(lib_a-memmove.o)
                              /usr/local/bin/../lib/gcc/arm-none-eabi/10.2.1/../../../../arm-none-eabi/lib/thumb/v7e-m+fp/hard/libg_nano.a(lib_a-nano-svfprintf.o) (memmove)
/usr/local/bin/../lib/gcc/arm-none-eabi/10.2.1/../../../../arm-none-eabi/lib/thumb/v7e-m+fp/hard/libg_nano.a(lib_a-nano-reallocr.o)
                              /usr/local/bin/../lib/gcc/arm-none-eabi/10.2.1/../../../../arm-none-eabi/lib/thumb/v7e-m+fp/hard/libg_nano.a(lib_a-nano-svfprintf.o) (_realloc_r)
/usr/local/bin/../lib/gcc/arm-none-eabi/10.2.1/../../../../arm-none-eabi/lib/thumb/v7e-m+fp/hard/libg_nano.a(lib_a-signal.o)
                              /usr/local/bin/../lib/gcc/arm-none-eabi/10.2.1/../../../../arm-none-eabi/lib/thumb/v7e-m+fp/hard/libg_nano.a(lib_a-abort.o) (raise)
/usr/local/bin/../lib/gcc/arm-none-eabi/10.2.1/../../../../arm-none-eabi/lib/thumb/v7e-m+fp/hard/libg_nano.a(lib_a-signalr.o)
                              /usr/local/bin/../lib/gcc/arm-none-eabi/10.2.1/../../../../arm-none-eabi/lib/thumb/v7e-m+fp/hard/libg_nano.a(lib_a-signal.o) (_kill_r)
/usr/local/bin/../lib/gcc/arm-none-eabi/10.2.1/../../../../arm-none-eabi/lib/thumb/v7e-m+fp/hard/libg_nano.a(lib_a-nano-msizer.o)
                              /usr/local/bin/../lib/gcc/arm-none-eabi/10.2.1/../../../../arm-none-eabi/lib/thumb/v7e-m+fp/hard/libg_nano.a(lib_a-nano-reallocr.o) (_malloc_usable_size_r)
/usr/local/bin/../lib/gcc/arm-none-eabi/10.2.1/../../../../arm-none-eabi/lib/thumb/v7e-m+fp/hard/libg_nano.a(lib_a-reent.o)
                              /usr/local/bin/../lib/gcc/arm-none-eabi/10.2.1/../../../../arm-none-eabi/lib/thumb/v7e-m+fp/hard/libg_nano.a(lib_a-signalr.o) (errno)
/usr/local/bin/../lib/gcc/arm-none-eabi/10.2.1/thumb/v7e-m+fp/hard/libgcc.a(_arm_muldivdf3.o)
                              /usr/local/bin/../lib/gcc/arm-none-eabi/10.2.1/../../../../arm-none-eabi/lib/thumb/v7e-m+fp/hard/libg_nano.a(lib_a-strtod.o) (__aeabi_ddiv)
/usr/local/bin/../lib/gcc/arm-none-eabi/10.2.1/thumb/v7e-m+fp/hard/libgcc.a(_arm_cmpdf2.o)
                              /usr/local/bin/../lib/gcc/arm-none-eabi/10.2.1/../../../../arm-none-eabi/lib/thumb/v7e-m+fp/hard/libg_nano.a(lib_a-nano-vfprintf_float.o) (__aeabi_dcmpeq)
/usr/local/bin/../lib/gcc/arm-none-eabi/10.2.1/thumb/v7e-m+fp/hard/libgcc.a(_arm_unorddf2.o)
                              /usr/local/bin/../lib/gcc/arm-none-eabi/10.2.1/../../../../arm-none-eabi/lib/thumb/v7e-m+fp/hard/libg_nano.a(lib_a-nano-vfprintf_float.o) (__aeabi_dcmpun)
/usr/local/bin/../lib/gcc/arm-none-eabi/10.2.1/thumb/v7e-m+fp/hard/libgcc.a(_arm_fixunsdfsi.o)
                              /usr/local/bin/../lib/gcc/arm-none-eabi/10.2.1/../../../../arm-none-eabi/lib/thumb/v7e-m+fp/hard/libg_nano.a(lib_a-strtod.o) (__aeabi_d2uiz)
/usr/local/bin/../lib/gcc/arm-none-eabi/10.2.1/thumb/v7e-m+fp/hard/libgcc.a(_arm_truncdfsf2.o)
                              /usr/local/bin/../lib/gcc/arm-none-eabi/10.2.1/../../../../arm-none-eabi/lib/thumb/v7e-m+fp/hard/libg_nano.a(lib_a-strtod.o) (__aeabi_d2f)
/usr/local/bin/../lib/gcc/arm-none-eabi/10.2.1/thumb/v7e-m+fp/hard/libgcc.a(_fixdfdi.o)
                              /usr/local/bin/../lib/gcc/arm-none-eabi/10.2.1/../../../../arm-none-eabi/lib/thumb/v7e-m+fp/hard/libg_nano.a(lib_a-strtod.o) (__aeabi_d2lz)
/usr/local/bin/../lib/gcc/arm-none-eabi/10.2.1/thumb/v7e-m+fp/hard/libgcc.a(_fixunsdfdi.o)
                              /usr/local/bin/../lib/gcc/arm-none-eabi/10.2.1/thumb/v7e-m+fp/hard/libgcc.a(_fixdfdi.o) (__aeabi_d2ulz)

Discarded input sections

 .text          0x0000000000000000        0x0 /usr/local/bin/../lib/gcc/arm-none-eabi/10.2.1/thumb/v7e-m+fp/hard/crti.o
 .data          0x0000000000000000        0x0 /usr/local/bin/../lib/gcc/arm-none-eabi/10.2.1/thumb/v7e-m+fp/hard/crti.o
 .bss           0x0000000000000000        0x0 /usr/local/bin/../lib/gcc/arm-none-eabi/10.2.1/thumb/v7e-m+fp/hard/crti.o
 .data          0x0000000000000000        0x4 /usr/local/bin/../lib/gcc/arm-none-eabi/10.2.1/thumb/v7e-m+fp/hard/crtbegin.o
 .rodata        0x0000000000000000       0x24 /usr/local/bin/../lib/gcc/arm-none-eabi/10.2.1/thumb/v7e-m+fp/hard/crtbegin.o
 .text          0x0000000000000000       0x7c /usr/local/bin/../lib/gcc/arm-none-eabi/10.2.1/../../../../arm-none-eabi/lib/thumb/v7e-m+fp/hard/crt0.o
 .data          0x0000000000000000        0x0 /usr/local/bin/../lib/gcc/arm-none-eabi/10.2.1/../../../../arm-none-eabi/lib/thumb/v7e-m+fp/hard/crt0.o
 .bss           0x0000000000000000        0x0 /usr/local/bin/../lib/gcc/arm-none-eabi/10.2.1/../../../../arm-none-eabi/lib/thumb/v7e-m+fp/hard/crt0.o
 .ARM.extab     0x0000000000000000        0x0 /usr/local/bin/../lib/gcc/arm-none-eabi/10.2.1/../../../../arm-none-eabi/lib/thumb/v7e-m+fp/hard/crt0.o
 .ARM.exidx     0x0000000000000000       0x10 /usr/local/bin/../lib/gcc/arm-none-eabi/10.2.1/../../../../arm-none-eabi/lib/thumb/v7e-m+fp/hard/crt0.o
 .ARM.attributes
                0x0000000000000000       0x1c /usr/local/bin/../lib/gcc/arm-none-eabi/10.2.1/../../../../arm-none-eabi/lib/thumb/v7e-m+fp/hard/crt0.o
 .text          0x0000000000000000        0x0 build/my_main.o
 .data          0x0000000000000000        0x0 build/my_main.o
 .bss           0x0000000000000000        0x0 build/my_main.o
 .bss           0x0000000000000000        0x0 build/mycode.o
 .text          0x0000000000000000        0x0 build/mytest.o
 .data          0x0000000000000000        0x0 build/mytest.o
 .bss           0x0000000000000000        0x0 build/mytest.o
 .text          0x0000000000000000        0x0 build/adc_example.o
 .data          0x0000000000000000        0x0 build/adc_example.o
 .bss           0x0000000000000000        0x0 build/adc_example.o
 .text          0x0000000000000000        0x0 build/monitor/decoder/STM32F411.o
 .data          0x0000000000000000        0x0 build/monitor/decoder/STM32F411.o
 .bss           0x0000000000000000        0x0 build/monitor/decoder/STM32F411.o
 .text          0x0000000000000000       0x14 build/cubemx_stm32f411/startup_stm32f411xe.o
 .data          0x0000000000000000        0x0 build/cubemx_stm32f411/startup_stm32f411xe.o
 .bss           0x0000000000000000        0x0 build/cubemx_stm32f411/startup_stm32f411xe.o
 .text          0x0000000000000000        0x0 build/syscall.o
 .data          0x0000000000000000        0x0 build/syscall.o
 .bss           0x0000000000000000        0x0 build/syscall.o
 .text._open_r  0x0000000000000000        0x6 build/syscall.o
 .text          0x0000000000000000        0x0 build/monitor/monitor.o
 .data          0x0000000000000000        0x0 build/monitor/monitor.o
 .bss           0x0000000000000000        0x0 build/monitor/monitor.o
 .text          0x0000000000000000        0x0 build/monitor/parser.o
 .data          0x0000000000000000        0x0 build/monitor/parser.o
 .bss           0x0000000000000000        0x0 build/monitor/parser.o
 .rodata.ParseCmd.str1.1
                0x0000000000000000       0x29 build/monitor/parser.o
 .text.ParseCmd
                0x0000000000000000       0x4c build/monitor/parser.o
 .text.fetch_int32_arg
                0x0000000000000000       0x3c build/monitor/parser.o
 .text.fetch_int16_arg
                0x0000000000000000       0x3c build/monitor/parser.o
 .text.fetch_uint16_arg
                0x0000000000000000       0x3c build/monitor/parser.o
 .text.fetch_double_arg
                0x0000000000000000       0x3c build/monitor/parser.o
 .text.fetch_float_arg
                0x0000000000000000       0x3c build/monitor/parser.o
 .text.ParserReturnValToString
                0x0000000000000000        0xc build/monitor/parser.o
 .rodata.ParserCodes
                0x0000000000000000       0x28 build/monitor/parser.o
 .text          0x0000000000000000        0x0 build/monitor/dump.o
 .data          0x0000000000000000        0x0 build/monitor/dump.o
 .bss           0x0000000000000000        0x0 build/monitor/dump.o
 .rodata.DumpBufferBinary.str1.1
                0x0000000000000000        0x6 build/monitor/dump.o
 .text.DumpBufferBinary
                0x0000000000000000       0x74 build/monitor/dump.o
 .text          0x0000000000000000        0x0 build/monitor/terminal.o
 .data          0x0000000000000000        0x0 build/monitor/terminal.o
 .bss           0x0000000000000000        0x0 build/monitor/terminal.o
 .text.TerminalTask
                0x0000000000000000        0x2 build/monitor/terminal.o
 .text.TerminalReadCount
                0x0000000000000000       0x18 build/monitor/terminal.o
 .text          0x0000000000000000        0x0 build/monitor/wdog.o
 .data          0x0000000000000000        0x0 build/monitor/wdog.o
 .bss           0x0000000000000000        0x0 build/monitor/wdog.o
 .rodata.IWDG_IRQHandler.str1.1
                0x0000000000000000       0x2c build/monitor/wdog.o
 .text.IWDG_IRQHandler
                0x0000000000000000       0x30 build/monitor/wdog.o
 .rodata.__FUNCTION__.0
                0x0000000000000000       0x10 build/monitor/wdog.o
 .text          0x0000000000000000        0x0 build/monitor/tasking.o
 .data          0x0000000000000000        0x0 build/monitor/tasking.o
 .bss           0x0000000000000000        0x0 build/monitor/tasking.o
 .text          0x0000000000000000        0x0 build/monitor/default.o
 .data          0x0000000000000000        0x0 build/monitor/default.o
 .bss           0x0000000000000000        0x0 build/monitor/default.o
 .text          0x0000000000000000        0x0 build/monitor/decoder/decoder.o
 .data          0x0000000000000000        0x0 build/monitor/decoder/decoder.o
 .bss           0x0000000000000000        0x0 build/monitor/decoder/decoder.o
 .text          0x0000000000000000        0x0 build/cubemx_stm32f411/Core/Src/main.o
 .data          0x0000000000000000        0x0 build/cubemx_stm32f411/Core/Src/main.o
 .bss           0x0000000000000000        0x0 build/cubemx_stm32f411/Core/Src/main.o
 .text.Error_Handler
                0x0000000000000000        0x4 build/cubemx_stm32f411/Core/Src/main.o
 .text          0x0000000000000000        0x0 build/cubemx_stm32f411/Core/Src/stm32f4xx_it.o
 .data          0x0000000000000000        0x0 build/cubemx_stm32f411/Core/Src/stm32f4xx_it.o
 .bss           0x0000000000000000        0x0 build/cubemx_stm32f411/Core/Src/stm32f4xx_it.o
 .text          0x0000000000000000        0x0 build/cubemx_stm32f411/Core/Src/stm32f4xx_hal_msp.o
 .data          0x0000000000000000        0x0 build/cubemx_stm32f411/Core/Src/stm32f4xx_hal_msp.o
 .bss           0x0000000000000000        0x0 build/cubemx_stm32f411/Core/Src/stm32f4xx_hal_msp.o
 .text.HAL_UART_MspDeInit
                0x0000000000000000       0x34 build/cubemx_stm32f411/Core/Src/stm32f4xx_hal_msp.o
 .text          0x0000000000000000        0x0 build/cubemx_stm32f411/Core/Src/system_stm32f4xx.o
 .data          0x0000000000000000        0x0 build/cubemx_stm32f411/Core/Src/system_stm32f4xx.o
 .bss           0x0000000000000000        0x0 build/cubemx_stm32f411/Core/Src/system_stm32f4xx.o
 .text.SystemCoreClockUpdate
                0x0000000000000000       0x74 build/cubemx_stm32f411/Core/Src/system_stm32f4xx.o
 .text          0x0000000000000000        0x0 build/cubemx_stm32f411/Drivers/STM32F4xx_HAL_Driver/Src/stm32f4xx_hal_rcc.o
 .data          0x0000000000000000        0x0 build/cubemx_stm32f411/Drivers/STM32F4xx_HAL_Driver/Src/stm32f4xx_hal_rcc.o
 .bss           0x0000000000000000        0x0 build/cubemx_stm32f411/Drivers/STM32F4xx_HAL_Driver/Src/stm32f4xx_hal_rcc.o
 .text.HAL_RCC_DeInit
                0x0000000000000000        0x4 build/cubemx_stm32f411/Drivers/STM32F4xx_HAL_Driver/Src/stm32f4xx_hal_rcc.o
 .text.HAL_RCC_MCOConfig
                0x0000000000000000       0x98 build/cubemx_stm32f411/Drivers/STM32F4xx_HAL_Driver/Src/stm32f4xx_hal_rcc.o
 .text.HAL_RCC_EnableCSS
                0x0000000000000000        0xc build/cubemx_stm32f411/Drivers/STM32F4xx_HAL_Driver/Src/stm32f4xx_hal_rcc.o
 .text.HAL_RCC_DisableCSS
                0x0000000000000000        0xc build/cubemx_stm32f411/Drivers/STM32F4xx_HAL_Driver/Src/stm32f4xx_hal_rcc.o
 .text.HAL_RCC_GetHCLKFreq
                0x0000000000000000        0xc build/cubemx_stm32f411/Drivers/STM32F4xx_HAL_Driver/Src/stm32f4xx_hal_rcc.o
 .text.HAL_RCC_GetOscConfig
                0x0000000000000000       0x94 build/cubemx_stm32f411/Drivers/STM32F4xx_HAL_Driver/Src/stm32f4xx_hal_rcc.o
 .text.HAL_RCC_GetClockConfig
                0x0000000000000000       0x3c build/cubemx_stm32f411/Drivers/STM32F4xx_HAL_Driver/Src/stm32f4xx_hal_rcc.o
 .text.HAL_RCC_CSSCallback
                0x0000000000000000        0x2 build/cubemx_stm32f411/Drivers/STM32F4xx_HAL_Driver/Src/stm32f4xx_hal_rcc.o
 .text.HAL_RCC_NMI_IRQHandler
                0x0000000000000000       0x18 build/cubemx_stm32f411/Drivers/STM32F4xx_HAL_Driver/Src/stm32f4xx_hal_rcc.o
 .text          0x0000000000000000        0x0 build/cubemx_stm32f411/Drivers/STM32F4xx_HAL_Driver/Src/stm32f4xx_hal_rcc_ex.o
 .data          0x0000000000000000        0x0 build/cubemx_stm32f411/Drivers/STM32F4xx_HAL_Driver/Src/stm32f4xx_hal_rcc_ex.o
 .bss           0x0000000000000000        0x0 build/cubemx_stm32f411/Drivers/STM32F4xx_HAL_Driver/Src/stm32f4xx_hal_rcc_ex.o
 .text.HAL_RCCEx_PeriphCLKConfig
                0x0000000000000000      0x144 build/cubemx_stm32f411/Drivers/STM32F4xx_HAL_Driver/Src/stm32f4xx_hal_rcc_ex.o
 .text.HAL_RCCEx_GetPeriphCLKConfig
                0x0000000000000000       0x44 build/cubemx_stm32f411/Drivers/STM32F4xx_HAL_Driver/Src/stm32f4xx_hal_rcc_ex.o
 .text.HAL_RCCEx_GetPeriphCLKFreq
                0x0000000000000000       0x4c build/cubemx_stm32f411/Drivers/STM32F4xx_HAL_Driver/Src/stm32f4xx_hal_rcc_ex.o
 .text.HAL_RCCEx_SelectLSEMode
                0x0000000000000000       0x18 build/cubemx_stm32f411/Drivers/STM32F4xx_HAL_Driver/Src/stm32f4xx_hal_rcc_ex.o
 .text.HAL_RCCEx_EnablePLLI2S
                0x0000000000000000       0x64 build/cubemx_stm32f411/Drivers/STM32F4xx_HAL_Driver/Src/stm32f4xx_hal_rcc_ex.o
 .text.HAL_RCCEx_DisablePLLI2S
                0x0000000000000000       0x34 build/cubemx_stm32f411/Drivers/STM32F4xx_HAL_Driver/Src/stm32f4xx_hal_rcc_ex.o
 .text.HAL_RCC_DeInit
                0x0000000000000000      0x120 build/cubemx_stm32f411/Drivers/STM32F4xx_HAL_Driver/Src/stm32f4xx_hal_rcc_ex.o
 .debug_info    0x0000000000000000      0x6e8 build/cubemx_stm32f411/Drivers/STM32F4xx_HAL_Driver/Src/stm32f4xx_hal_rcc_ex.o
 .debug_abbrev  0x0000000000000000      0x17e build/cubemx_stm32f411/Drivers/STM32F4xx_HAL_Driver/Src/stm32f4xx_hal_rcc_ex.o
 .debug_loc     0x0000000000000000      0x3d2 build/cubemx_stm32f411/Drivers/STM32F4xx_HAL_Driver/Src/stm32f4xx_hal_rcc_ex.o
 .debug_aranges
                0x0000000000000000       0x50 build/cubemx_stm32f411/Drivers/STM32F4xx_HAL_Driver/Src/stm32f4xx_hal_rcc_ex.o
 .debug_ranges  0x0000000000000000       0x58 build/cubemx_stm32f411/Drivers/STM32F4xx_HAL_Driver/Src/stm32f4xx_hal_rcc_ex.o
 .debug_line    0x0000000000000000      0x6b0 build/cubemx_stm32f411/Drivers/STM32F4xx_HAL_Driver/Src/stm32f4xx_hal_rcc_ex.o
 .debug_str     0x0000000000000000      0x51f build/cubemx_stm32f411/Drivers/STM32F4xx_HAL_Driver/Src/stm32f4xx_hal_rcc_ex.o
 .comment       0x0000000000000000       0x4e build/cubemx_stm32f411/Drivers/STM32F4xx_HAL_Driver/Src/stm32f4xx_hal_rcc_ex.o
 .debug_frame   0x0000000000000000       0xb8 build/cubemx_stm32f411/Drivers/STM32F4xx_HAL_Driver/Src/stm32f4xx_hal_rcc_ex.o
 .ARM.attributes
                0x0000000000000000       0x34 build/cubemx_stm32f411/Drivers/STM32F4xx_HAL_Driver/Src/stm32f4xx_hal_rcc_ex.o
 .text          0x0000000000000000        0x0 build/cubemx_stm32f411/Drivers/STM32F4xx_HAL_Driver/Src/stm32f4xx_hal.o
 .data          0x0000000000000000        0x0 build/cubemx_stm32f411/Drivers/STM32F4xx_HAL_Driver/Src/stm32f4xx_hal.o
 .bss           0x0000000000000000        0x0 build/cubemx_stm32f411/Drivers/STM32F4xx_HAL_Driver/Src/stm32f4xx_hal.o
 .text.HAL_MspInit
                0x0000000000000000        0x2 build/cubemx_stm32f411/Drivers/STM32F4xx_HAL_Driver/Src/stm32f4xx_hal.o
 .text.HAL_MspDeInit
                0x0000000000000000        0x2 build/cubemx_stm32f411/Drivers/STM32F4xx_HAL_Driver/Src/stm32f4xx_hal.o
 .text.HAL_DeInit
                0x0000000000000000       0x2c build/cubemx_stm32f411/Drivers/STM32F4xx_HAL_Driver/Src/stm32f4xx_hal.o
 .text.HAL_GetTickPrio
                0x0000000000000000        0xc build/cubemx_stm32f411/Drivers/STM32F4xx_HAL_Driver/Src/stm32f4xx_hal.o
 .text.HAL_SetTickFreq
                0x0000000000000000       0x28 build/cubemx_stm32f411/Drivers/STM32F4xx_HAL_Driver/Src/stm32f4xx_hal.o
 .text.HAL_GetTickFreq
                0x0000000000000000        0xc build/cubemx_stm32f411/Drivers/STM32F4xx_HAL_Driver/Src/stm32f4xx_hal.o
 .text.HAL_Delay
                0x0000000000000000       0x28 build/cubemx_stm32f411/Drivers/STM32F4xx_HAL_Driver/Src/stm32f4xx_hal.o
 .text.HAL_SuspendTick
                0x0000000000000000        0xe build/cubemx_stm32f411/Drivers/STM32F4xx_HAL_Driver/Src/stm32f4xx_hal.o
 .text.HAL_ResumeTick
                0x0000000000000000        0xe build/cubemx_stm32f411/Drivers/STM32F4xx_HAL_Driver/Src/stm32f4xx_hal.o
 .text.HAL_GetHalVersion
                0x0000000000000000        0x8 build/cubemx_stm32f411/Drivers/STM32F4xx_HAL_Driver/Src/stm32f4xx_hal.o
 .text.HAL_GetREVID
                0x0000000000000000        0xc build/cubemx_stm32f411/Drivers/STM32F4xx_HAL_Driver/Src/stm32f4xx_hal.o
 .text.HAL_GetDEVID
                0x0000000000000000       0x10 build/cubemx_stm32f411/Drivers/STM32F4xx_HAL_Driver/Src/stm32f4xx_hal.o
 .text.HAL_DBGMCU_EnableDBGSleepMode
                0x0000000000000000       0x10 build/cubemx_stm32f411/Drivers/STM32F4xx_HAL_Driver/Src/stm32f4xx_hal.o
 .text.HAL_DBGMCU_DisableDBGSleepMode
                0x0000000000000000       0x10 build/cubemx_stm32f411/Drivers/STM32F4xx_HAL_Driver/Src/stm32f4xx_hal.o
 .text.HAL_DBGMCU_EnableDBGStopMode
                0x0000000000000000       0x10 build/cubemx_stm32f411/Drivers/STM32F4xx_HAL_Driver/Src/stm32f4xx_hal.o
 .text.HAL_DBGMCU_DisableDBGStopMode
                0x0000000000000000       0x10 build/cubemx_stm32f411/Drivers/STM32F4xx_HAL_Driver/Src/stm32f4xx_hal.o
 .text.HAL_DBGMCU_EnableDBGStandbyMode
                0x0000000000000000       0x10 build/cubemx_stm32f411/Drivers/STM32F4xx_HAL_Driver/Src/stm32f4xx_hal.o
 .text.HAL_DBGMCU_DisableDBGStandbyMode
                0x0000000000000000       0x10 build/cubemx_stm32f411/Drivers/STM32F4xx_HAL_Driver/Src/stm32f4xx_hal.o
 .text.HAL_EnableCompensationCell
                0x0000000000000000       0x10 build/cubemx_stm32f411/Drivers/STM32F4xx_HAL_Driver/Src/stm32f4xx_hal.o
 .text.HAL_DisableCompensationCell
                0x0000000000000000       0x10 build/cubemx_stm32f411/Drivers/STM32F4xx_HAL_Driver/Src/stm32f4xx_hal.o
 .text.HAL_GetUIDw0
                0x0000000000000000        0xc build/cubemx_stm32f411/Drivers/STM32F4xx_HAL_Driver/Src/stm32f4xx_hal.o
 .text.HAL_GetUIDw1
                0x0000000000000000        0xc build/cubemx_stm32f411/Drivers/STM32F4xx_HAL_Driver/Src/stm32f4xx_hal.o
 .text.HAL_GetUIDw2
                0x0000000000000000        0xc build/cubemx_stm32f411/Drivers/STM32F4xx_HAL_Driver/Src/stm32f4xx_hal.o
 .text          0x0000000000000000        0x0 build/cubemx_stm32f411/Drivers/STM32F4xx_HAL_Driver/Src/stm32f4xx_hal_cortex.o
 .data          0x0000000000000000        0x0 build/cubemx_stm32f411/Drivers/STM32F4xx_HAL_Driver/Src/stm32f4xx_hal_cortex.o
 .bss           0x0000000000000000        0x0 build/cubemx_stm32f411/Drivers/STM32F4xx_HAL_Driver/Src/stm32f4xx_hal_cortex.o
 .text.HAL_NVIC_DisableIRQ
                0x0000000000000000       0x28 build/cubemx_stm32f411/Drivers/STM32F4xx_HAL_Driver/Src/stm32f4xx_hal_cortex.o
 .text.HAL_NVIC_SystemReset
                0x0000000000000000       0x24 build/cubemx_stm32f411/Drivers/STM32F4xx_HAL_Driver/Src/stm32f4xx_hal_cortex.o
 .text.HAL_MPU_Disable
                0x0000000000000000       0x1c build/cubemx_stm32f411/Drivers/STM32F4xx_HAL_Driver/Src/stm32f4xx_hal_cortex.o
 .text.HAL_MPU_Enable
                0x0000000000000000       0x20 build/cubemx_stm32f411/Drivers/STM32F4xx_HAL_Driver/Src/stm32f4xx_hal_cortex.o
 .text.HAL_MPU_ConfigRegion
                0x0000000000000000       0x58 build/cubemx_stm32f411/Drivers/STM32F4xx_HAL_Driver/Src/stm32f4xx_hal_cortex.o
 .text.HAL_NVIC_GetPriorityGrouping
                0x0000000000000000       0x10 build/cubemx_stm32f411/Drivers/STM32F4xx_HAL_Driver/Src/stm32f4xx_hal_cortex.o
 .text.HAL_NVIC_GetPriority
                0x0000000000000000       0x5c build/cubemx_stm32f411/Drivers/STM32F4xx_HAL_Driver/Src/stm32f4xx_hal_cortex.o
 .text.HAL_NVIC_SetPendingIRQ
                0x0000000000000000       0x20 build/cubemx_stm32f411/Drivers/STM32F4xx_HAL_Driver/Src/stm32f4xx_hal_cortex.o
 .text.HAL_NVIC_GetPendingIRQ
                0x0000000000000000       0x24 build/cubemx_stm32f411/Drivers/STM32F4xx_HAL_Driver/Src/stm32f4xx_hal_cortex.o
 .text.HAL_NVIC_ClearPendingIRQ
                0x0000000000000000       0x20 build/cubemx_stm32f411/Drivers/STM32F4xx_HAL_Driver/Src/stm32f4xx_hal_cortex.o
 .text.HAL_NVIC_GetActive
                0x0000000000000000       0x24 build/cubemx_stm32f411/Drivers/STM32F4xx_HAL_Driver/Src/stm32f4xx_hal_cortex.o
 .text.HAL_SYSTICK_CLKSourceConfig
                0x0000000000000000       0x16 build/cubemx_stm32f411/Drivers/STM32F4xx_HAL_Driver/Src/stm32f4xx_hal_cortex.o
 .text.HAL_SYSTICK_Callback
                0x0000000000000000        0x2 build/cubemx_stm32f411/Drivers/STM32F4xx_HAL_Driver/Src/stm32f4xx_hal_cortex.o
 .text.HAL_SYSTICK_IRQHandler
                0x0000000000000000        0x8 build/cubemx_stm32f411/Drivers/STM32F4xx_HAL_Driver/Src/stm32f4xx_hal_cortex.o
 .text          0x0000000000000000        0x0 build/cubemx_stm32f411/Drivers/STM32F4xx_HAL_Driver/Src/stm32f4xx_hal_uart.o
 .data          0x0000000000000000        0x0 build/cubemx_stm32f411/Drivers/STM32F4xx_HAL_Driver/Src/stm32f4xx_hal_uart.o
 .bss           0x0000000000000000        0x0 build/cubemx_stm32f411/Drivers/STM32F4xx_HAL_Driver/Src/stm32f4xx_hal_uart.o
 .text.UART_EndRxTransfer
                0x0000000000000000       0x5c build/cubemx_stm32f411/Drivers/STM32F4xx_HAL_Driver/Src/stm32f4xx_hal_uart.o
 .text.UART_WaitOnFlagUntilTimeout.constprop.0
                0x0000000000000000       0x6c build/cubemx_stm32f411/Drivers/STM32F4xx_HAL_Driver/Src/stm32f4xx_hal_uart.o
 .text.HAL_UART_MspInit
                0x0000000000000000        0x2 build/cubemx_stm32f411/Drivers/STM32F4xx_HAL_Driver/Src/stm32f4xx_hal_uart.o
 .text.HAL_HalfDuplex_Init
                0x0000000000000000       0x64 build/cubemx_stm32f411/Drivers/STM32F4xx_HAL_Driver/Src/stm32f4xx_hal_uart.o
 .text.HAL_LIN_Init
                0x0000000000000000       0x76 build/cubemx_stm32f411/Drivers/STM32F4xx_HAL_Driver/Src/stm32f4xx_hal_uart.o
 .text.HAL_MultiProcessor_Init
                0x0000000000000000       0x7e build/cubemx_stm32f411/Drivers/STM32F4xx_HAL_Driver/Src/stm32f4xx_hal_uart.o
 .text.HAL_UART_MspDeInit
                0x0000000000000000        0x2 build/cubemx_stm32f411/Drivers/STM32F4xx_HAL_Driver/Src/stm32f4xx_hal_uart.o
 .text.HAL_UART_DeInit
                0x0000000000000000       0x32 build/cubemx_stm32f411/Drivers/STM32F4xx_HAL_Driver/Src/stm32f4xx_hal_uart.o
 .text.HAL_UART_Transmit
                0x0000000000000000       0xaa build/cubemx_stm32f411/Drivers/STM32F4xx_HAL_Driver/Src/stm32f4xx_hal_uart.o
 .text.HAL_UART_Receive
                0x0000000000000000       0xb8 build/cubemx_stm32f411/Drivers/STM32F4xx_HAL_Driver/Src/stm32f4xx_hal_uart.o
 .text.HAL_UART_Transmit_IT
                0x0000000000000000       0x3e build/cubemx_stm32f411/Drivers/STM32F4xx_HAL_Driver/Src/stm32f4xx_hal_uart.o
 .text.HAL_UART_Transmit_DMA
                0x0000000000000000       0x84 build/cubemx_stm32f411/Drivers/STM32F4xx_HAL_Driver/Src/stm32f4xx_hal_uart.o
 .text.HAL_UART_DMAPause
                0x0000000000000000       0x9a build/cubemx_stm32f411/Drivers/STM32F4xx_HAL_Driver/Src/stm32f4xx_hal_uart.o
 .text.HAL_UART_DMAResume
                0x0000000000000000       0xa0 build/cubemx_stm32f411/Drivers/STM32F4xx_HAL_Driver/Src/stm32f4xx_hal_uart.o
 .text.HAL_UART_DMAStop
                0x0000000000000000       0x8c build/cubemx_stm32f411/Drivers/STM32F4xx_HAL_Driver/Src/stm32f4xx_hal_uart.o
 .text.HAL_UARTEx_ReceiveToIdle
                0x0000000000000000      0x10c build/cubemx_stm32f411/Drivers/STM32F4xx_HAL_Driver/Src/stm32f4xx_hal_uart.o
 .text.HAL_UART_Abort
                0x0000000000000000       0xdc build/cubemx_stm32f411/Drivers/STM32F4xx_HAL_Driver/Src/stm32f4xx_hal_uart.o
 .text.HAL_UART_AbortTransmit
                0x0000000000000000       0x66 build/cubemx_stm32f411/Drivers/STM32F4xx_HAL_Driver/Src/stm32f4xx_hal_uart.o
 .text.HAL_UART_AbortReceive
                0x0000000000000000       0x9e build/cubemx_stm32f411/Drivers/STM32F4xx_HAL_Driver/Src/stm32f4xx_hal_uart.o
 .text.HAL_UART_TxCpltCallback
                0x0000000000000000        0x2 build/cubemx_stm32f411/Drivers/STM32F4xx_HAL_Driver/Src/stm32f4xx_hal_uart.o
 .text.UART_DMATransmitCplt
                0x0000000000000000       0x4c build/cubemx_stm32f411/Drivers/STM32F4xx_HAL_Driver/Src/stm32f4xx_hal_uart.o
 .text.HAL_UART_TxHalfCpltCallback
                0x0000000000000000        0x2 build/cubemx_stm32f411/Drivers/STM32F4xx_HAL_Driver/Src/stm32f4xx_hal_uart.o
 .text.UART_DMATxHalfCplt
                0x0000000000000000        0xa build/cubemx_stm32f411/Drivers/STM32F4xx_HAL_Driver/Src/stm32f4xx_hal_uart.o
 .text.HAL_UART_RxCpltCallback
                0x0000000000000000        0x2 build/cubemx_stm32f411/Drivers/STM32F4xx_HAL_Driver/Src/stm32f4xx_hal_uart.o
 .text.HAL_UART_RxHalfCpltCallback
                0x0000000000000000        0x2 build/cubemx_stm32f411/Drivers/STM32F4xx_HAL_Driver/Src/stm32f4xx_hal_uart.o
 .text.HAL_UART_ErrorCallback
                0x0000000000000000        0x2 build/cubemx_stm32f411/Drivers/STM32F4xx_HAL_Driver/Src/stm32f4xx_hal_uart.o
 .text.UART_DMAError
                0x0000000000000000       0x5a build/cubemx_stm32f411/Drivers/STM32F4xx_HAL_Driver/Src/stm32f4xx_hal_uart.o
 .text.UART_DMAAbortOnError
                0x0000000000000000       0x10 build/cubemx_stm32f411/Drivers/STM32F4xx_HAL_Driver/Src/stm32f4xx_hal_uart.o
 .text.HAL_UART_AbortCpltCallback
                0x0000000000000000        0x2 build/cubemx_stm32f411/Drivers/STM32F4xx_HAL_Driver/Src/stm32f4xx_hal_uart.o
 .text.HAL_UART_Abort_IT
                0x0000000000000000      0x10c build/cubemx_stm32f411/Drivers/STM32F4xx_HAL_Driver/Src/stm32f4xx_hal_uart.o
 .text.UART_DMARxAbortCallback
                0x0000000000000000       0x2a build/cubemx_stm32f411/Drivers/STM32F4xx_HAL_Driver/Src/stm32f4xx_hal_uart.o
 .text.UART_DMATxAbortCallback
                0x0000000000000000       0x2a build/cubemx_stm32f411/Drivers/STM32F4xx_HAL_Driver/Src/stm32f4xx_hal_uart.o
 .text.HAL_UART_AbortTransmitCpltCallback
                0x0000000000000000        0x2 build/cubemx_stm32f411/Drivers/STM32F4xx_HAL_Driver/Src/stm32f4xx_hal_uart.o
 .text.HAL_UART_AbortTransmit_IT
                0x0000000000000000       0x70 build/cubemx_stm32f411/Drivers/STM32F4xx_HAL_Driver/Src/stm32f4xx_hal_uart.o
 .text.UART_DMATxOnlyAbortCallback
                0x0000000000000000       0x14 build/cubemx_stm32f411/Drivers/STM32F4xx_HAL_Driver/Src/stm32f4xx_hal_uart.o
 .text.HAL_UART_AbortReceiveCpltCallback
                0x0000000000000000        0x2 build/cubemx_stm32f411/Drivers/STM32F4xx_HAL_Driver/Src/stm32f4xx_hal_uart.o
 .text.HAL_UART_AbortReceive_IT
                0x0000000000000000       0xb0 build/cubemx_stm32f411/Drivers/STM32F4xx_HAL_Driver/Src/stm32f4xx_hal_uart.o
 .text.UART_DMARxOnlyAbortCallback
                0x0000000000000000       0x16 build/cubemx_stm32f411/Drivers/STM32F4xx_HAL_Driver/Src/stm32f4xx_hal_uart.o
 .text.HAL_UARTEx_RxEventCallback
                0x0000000000000000        0x2 build/cubemx_stm32f411/Drivers/STM32F4xx_HAL_Driver/Src/stm32f4xx_hal_uart.o
 .text.UART_DMARxHalfCplt
                0x0000000000000000       0x1a build/cubemx_stm32f411/Drivers/STM32F4xx_HAL_Driver/Src/stm32f4xx_hal_uart.o
 .text.UART_DMAReceiveCplt
                0x0000000000000000       0x94 build/cubemx_stm32f411/Drivers/STM32F4xx_HAL_Driver/Src/stm32f4xx_hal_uart.o
 .text.UART_Receive_IT.part.0.isra.0
                0x0000000000000000       0xac build/cubemx_stm32f411/Drivers/STM32F4xx_HAL_Driver/Src/stm32f4xx_hal_uart.o
 .text.HAL_UART_IRQHandler
                0x0000000000000000      0x2a0 build/cubemx_stm32f411/Drivers/STM32F4xx_HAL_Driver/Src/stm32f4xx_hal_uart.o
 .text.HAL_LIN_SendBreak
                0x0000000000000000       0x3e build/cubemx_stm32f411/Drivers/STM32F4xx_HAL_Driver/Src/stm32f4xx_hal_uart.o
 .text.HAL_MultiProcessor_EnterMuteMode
                0x0000000000000000       0x3e build/cubemx_stm32f411/Drivers/STM32F4xx_HAL_Driver/Src/stm32f4xx_hal_uart.o
 .text.HAL_MultiProcessor_ExitMuteMode
                0x0000000000000000       0x3e build/cubemx_stm32f411/Drivers/STM32F4xx_HAL_Driver/Src/stm32f4xx_hal_uart.o
 .text.HAL_HalfDuplex_EnableTransmitter
                0x0000000000000000       0x30 build/cubemx_stm32f411/Drivers/STM32F4xx_HAL_Driver/Src/stm32f4xx_hal_uart.o
 .text.HAL_HalfDuplex_EnableReceiver
                0x0000000000000000       0x30 build/cubemx_stm32f411/Drivers/STM32F4xx_HAL_Driver/Src/stm32f4xx_hal_uart.o
 .text.HAL_UART_GetState
                0x0000000000000000        0xc build/cubemx_stm32f411/Drivers/STM32F4xx_HAL_Driver/Src/stm32f4xx_hal_uart.o
 .text.HAL_UART_GetError
                0x0000000000000000        0x4 build/cubemx_stm32f411/Drivers/STM32F4xx_HAL_Driver/Src/stm32f4xx_hal_uart.o
 .text.UART_Start_Receive_IT
                0x0000000000000000       0x32 build/cubemx_stm32f411/Drivers/STM32F4xx_HAL_Driver/Src/stm32f4xx_hal_uart.o
 .text.HAL_UART_Receive_IT
                0x0000000000000000       0x30 build/cubemx_stm32f411/Drivers/STM32F4xx_HAL_Driver/Src/stm32f4xx_hal_uart.o
 .text.HAL_UARTEx_ReceiveToIdle_IT
                0x0000000000000000       0x62 build/cubemx_stm32f411/Drivers/STM32F4xx_HAL_Driver/Src/stm32f4xx_hal_uart.o
 .text.UART_Start_Receive_DMA
                0x0000000000000000       0x98 build/cubemx_stm32f411/Drivers/STM32F4xx_HAL_Driver/Src/stm32f4xx_hal_uart.o
 .text.HAL_UART_Receive_DMA
                0x0000000000000000       0x30 build/cubemx_stm32f411/Drivers/STM32F4xx_HAL_Driver/Src/stm32f4xx_hal_uart.o
 .text.HAL_UARTEx_ReceiveToIdle_DMA
                0x0000000000000000       0x62 build/cubemx_stm32f411/Drivers/STM32F4xx_HAL_Driver/Src/stm32f4xx_hal_uart.o
 .text          0x0000000000000000        0x0 build/cubemx_stm32f411/Drivers/STM32F4xx_HAL_Driver/Src/stm32f4xx_hal_gpio.o
 .data          0x0000000000000000        0x0 build/cubemx_stm32f411/Drivers/STM32F4xx_HAL_Driver/Src/stm32f4xx_hal_gpio.o
 .bss           0x0000000000000000        0x0 build/cubemx_stm32f411/Drivers/STM32F4xx_HAL_Driver/Src/stm32f4xx_hal_gpio.o
 .text.HAL_GPIO_DeInit
                0x0000000000000000       0xf8 build/cubemx_stm32f411/Drivers/STM32F4xx_HAL_Driver/Src/stm32f4xx_hal_gpio.o
 .text.HAL_GPIO_ReadPin
                0x0000000000000000        0xc build/cubemx_stm32f411/Drivers/STM32F4xx_HAL_Driver/Src/stm32f4xx_hal_gpio.o
 .text.HAL_GPIO_TogglePin
                0x0000000000000000       0x12 build/cubemx_stm32f411/Drivers/STM32F4xx_HAL_Driver/Src/stm32f4xx_hal_gpio.o
 .text.HAL_GPIO_LockPin
                0x0000000000000000       0x2a build/cubemx_stm32f411/Drivers/STM32F4xx_HAL_Driver/Src/stm32f4xx_hal_gpio.o
 .text.HAL_GPIO_EXTI_Callback
                0x0000000000000000        0x2 build/cubemx_stm32f411/Drivers/STM32F4xx_HAL_Driver/Src/stm32f4xx_hal_gpio.o
 .text.HAL_GPIO_EXTI_IRQHandler
                0x0000000000000000       0x18 build/cubemx_stm32f411/Drivers/STM32F4xx_HAL_Driver/Src/stm32f4xx_hal_gpio.o
 .text          0x0000000000000000        0x0 build/cubemx_stm32f411/Drivers/STM32F4xx_HAL_Driver/Src/stm32f4xx_hal_iwdg.o
 .data          0x0000000000000000        0x0 build/cubemx_stm32f411/Drivers/STM32F4xx_HAL_Driver/Src/stm32f4xx_hal_iwdg.o
 .bss           0x0000000000000000        0x0 build/cubemx_stm32f411/Drivers/STM32F4xx_HAL_Driver/Src/stm32f4xx_hal_iwdg.o
 .text          0x0000000000000000        0x0 build/cubemx_stm32f411/Drivers/STM32F4xx_HAL_Driver/Src/stm32f4xx_hal_rtc.o
 .data          0x0000000000000000        0x0 build/cubemx_stm32f411/Drivers/STM32F4xx_HAL_Driver/Src/stm32f4xx_hal_rtc.o
 .bss           0x0000000000000000        0x0 build/cubemx_stm32f411/Drivers/STM32F4xx_HAL_Driver/Src/stm32f4xx_hal_rtc.o
 .debug_info    0x0000000000000000       0x64 build/cubemx_stm32f411/Drivers/STM32F4xx_HAL_Driver/Src/stm32f4xx_hal_rtc.o
 .debug_abbrev  0x0000000000000000       0x26 build/cubemx_stm32f411/Drivers/STM32F4xx_HAL_Driver/Src/stm32f4xx_hal_rtc.o
 .debug_aranges
                0x0000000000000000       0x18 build/cubemx_stm32f411/Drivers/STM32F4xx_HAL_Driver/Src/stm32f4xx_hal_rtc.o
 .debug_line    0x0000000000000000       0x1d build/cubemx_stm32f411/Drivers/STM32F4xx_HAL_Driver/Src/stm32f4xx_hal_rtc.o
 .debug_str     0x0000000000000000      0x1c0 build/cubemx_stm32f411/Drivers/STM32F4xx_HAL_Driver/Src/stm32f4xx_hal_rtc.o
 .comment       0x0000000000000000       0x4e build/cubemx_stm32f411/Drivers/STM32F4xx_HAL_Driver/Src/stm32f4xx_hal_rtc.o
 .ARM.attributes
                0x0000000000000000       0x39 build/cubemx_stm32f411/Drivers/STM32F4xx_HAL_Driver/Src/stm32f4xx_hal_rtc.o
 .text          0x0000000000000000        0x0 build/cubemx_stm32f411/Drivers/STM32F4xx_HAL_Driver/Src/stm32f4xx_hal_rtc_ex.o
 .data          0x0000000000000000        0x0 build/cubemx_stm32f411/Drivers/STM32F4xx_HAL_Driver/Src/stm32f4xx_hal_rtc_ex.o
 .bss           0x0000000000000000        0x0 build/cubemx_stm32f411/Drivers/STM32F4xx_HAL_Driver/Src/stm32f4xx_hal_rtc_ex.o
 .debug_info    0x0000000000000000       0x64 build/cubemx_stm32f411/Drivers/STM32F4xx_HAL_Driver/Src/stm32f4xx_hal_rtc_ex.o
 .debug_abbrev  0x0000000000000000       0x26 build/cubemx_stm32f411/Drivers/STM32F4xx_HAL_Driver/Src/stm32f4xx_hal_rtc_ex.o
 .debug_aranges
                0x0000000000000000       0x18 build/cubemx_stm32f411/Drivers/STM32F4xx_HAL_Driver/Src/stm32f4xx_hal_rtc_ex.o
 .debug_line    0x0000000000000000       0x1d build/cubemx_stm32f411/Drivers/STM32F4xx_HAL_Driver/Src/stm32f4xx_hal_rtc_ex.o
 .debug_str     0x0000000000000000      0x1c3 build/cubemx_stm32f411/Drivers/STM32F4xx_HAL_Driver/Src/stm32f4xx_hal_rtc_ex.o
 .comment       0x0000000000000000       0x4e build/cubemx_stm32f411/Drivers/STM32F4xx_HAL_Driver/Src/stm32f4xx_hal_rtc_ex.o
 .ARM.attributes
                0x0000000000000000       0x39 build/cubemx_stm32f411/Drivers/STM32F4xx_HAL_Driver/Src/stm32f4xx_hal_rtc_ex.o
 .text          0x0000000000000000        0x0 build/cubemx_stm32f411/Drivers/STM32F4xx_HAL_Driver/Src/stm32f4xx_hal_adc.o
 .data          0x0000000000000000        0x0 build/cubemx_stm32f411/Drivers/STM32F4xx_HAL_Driver/Src/stm32f4xx_hal_adc.o
 .bss           0x0000000000000000        0x0 build/cubemx_stm32f411/Drivers/STM32F4xx_HAL_Driver/Src/stm32f4xx_hal_adc.o
 .text.HAL_ADC_MspDeInit
                0x0000000000000000        0x2 build/cubemx_stm32f411/Drivers/STM32F4xx_HAL_Driver/Src/stm32f4xx_hal_adc.o
 .text.HAL_ADC_DeInit
                0x0000000000000000       0x34 build/cubemx_stm32f411/Drivers/STM32F4xx_HAL_Driver/Src/stm32f4xx_hal_adc.o
 .text.HAL_ADC_PollForEvent
                0x0000000000000000       0x70 build/cubemx_stm32f411/Drivers/STM32F4xx_HAL_Driver/Src/stm32f4xx_hal_adc.o
 .text.HAL_ADC_Start_IT
                0x0000000000000000       0xf8 build/cubemx_stm32f411/Drivers/STM32F4xx_HAL_Driver/Src/stm32f4xx_hal_adc.o
 .text.HAL_ADC_Stop_IT
                0x0000000000000000       0x48 build/cubemx_stm32f411/Drivers/STM32F4xx_HAL_Driver/Src/stm32f4xx_hal_adc.o
 .text.HAL_ADC_Start_DMA
                0x0000000000000000      0x12c build/cubemx_stm32f411/Drivers/STM32F4xx_HAL_Driver/Src/stm32f4xx_hal_adc.o
 .text.HAL_ADC_Stop_DMA
                0x0000000000000000       0x72 build/cubemx_stm32f411/Drivers/STM32F4xx_HAL_Driver/Src/stm32f4xx_hal_adc.o
 .text.HAL_ADC_ConvCpltCallback
                0x0000000000000000        0x2 build/cubemx_stm32f411/Drivers/STM32F4xx_HAL_Driver/Src/stm32f4xx_hal_adc.o
 .text.HAL_ADC_ConvHalfCpltCallback
                0x0000000000000000        0x2 build/cubemx_stm32f411/Drivers/STM32F4xx_HAL_Driver/Src/stm32f4xx_hal_adc.o
 .text.ADC_DMAHalfConvCplt
                0x0000000000000000        0xa build/cubemx_stm32f411/Drivers/STM32F4xx_HAL_Driver/Src/stm32f4xx_hal_adc.o
 .text.HAL_ADC_LevelOutOfWindowCallback
                0x0000000000000000        0x2 build/cubemx_stm32f411/Drivers/STM32F4xx_HAL_Driver/Src/stm32f4xx_hal_adc.o
 .text.HAL_ADC_ErrorCallback
                0x0000000000000000        0x2 build/cubemx_stm32f411/Drivers/STM32F4xx_HAL_Driver/Src/stm32f4xx_hal_adc.o
 .text.HAL_ADC_IRQHandler
                0x0000000000000000      0x128 build/cubemx_stm32f411/Drivers/STM32F4xx_HAL_Driver/Src/stm32f4xx_hal_adc.o
 .text.ADC_DMAError
                0x0000000000000000       0x16 build/cubemx_stm32f411/Drivers/STM32F4xx_HAL_Driver/Src/stm32f4xx_hal_adc.o
 .text.ADC_DMAConvCplt
                0x0000000000000000       0x6c build/cubemx_stm32f411/Drivers/STM32F4xx_HAL_Driver/Src/stm32f4xx_hal_adc.o
 .text.HAL_ADC_AnalogWDGConfig
                0x0000000000000000       0x5e build/cubemx_stm32f411/Drivers/STM32F4xx_HAL_Driver/Src/stm32f4xx_hal_adc.o
 .text.HAL_ADC_GetState
                0x0000000000000000        0x4 build/cubemx_stm32f411/Drivers/STM32F4xx_HAL_Driver/Src/stm32f4xx_hal_adc.o
 .text.HAL_ADC_GetError
                0x0000000000000000        0x4 build/cubemx_stm32f411/Drivers/STM32F4xx_HAL_Driver/Src/stm32f4xx_hal_adc.o
 .text          0x0000000000000000        0x0 build/cubemx_stm32f411/Drivers/STM32F4xx_HAL_Driver/Src/stm32f4xx_hal_adc_ex.o
 .data          0x0000000000000000        0x0 build/cubemx_stm32f411/Drivers/STM32F4xx_HAL_Driver/Src/stm32f4xx_hal_adc_ex.o
 .bss           0x0000000000000000        0x0 build/cubemx_stm32f411/Drivers/STM32F4xx_HAL_Driver/Src/stm32f4xx_hal_adc_ex.o
 .text.ADC_MultiModeDMAError
                0x0000000000000000       0x12 build/cubemx_stm32f411/Drivers/STM32F4xx_HAL_Driver/Src/stm32f4xx_hal_adc_ex.o
 .text.ADC_MultiModeDMAHalfConvCplt
                0x0000000000000000        0x6 build/cubemx_stm32f411/Drivers/STM32F4xx_HAL_Driver/Src/stm32f4xx_hal_adc_ex.o
 .text.ADC_MultiModeDMAConvCplt
                0x0000000000000000       0x58 build/cubemx_stm32f411/Drivers/STM32F4xx_HAL_Driver/Src/stm32f4xx_hal_adc_ex.o
 .text.HAL_ADCEx_InjectedStart
                0x0000000000000000       0xe0 build/cubemx_stm32f411/Drivers/STM32F4xx_HAL_Driver/Src/stm32f4xx_hal_adc_ex.o
 .text.HAL_ADCEx_InjectedStart_IT
                0x0000000000000000       0xe8 build/cubemx_stm32f411/Drivers/STM32F4xx_HAL_Driver/Src/stm32f4xx_hal_adc_ex.o
 .text.HAL_ADCEx_InjectedStop
                0x0000000000000000       0x5a build/cubemx_stm32f411/Drivers/STM32F4xx_HAL_Driver/Src/stm32f4xx_hal_adc_ex.o
 .text.HAL_ADCEx_InjectedPollForConversion
                0x0000000000000000       0x90 build/cubemx_stm32f411/Drivers/STM32F4xx_HAL_Driver/Src/stm32f4xx_hal_adc_ex.o
 .text.HAL_ADCEx_InjectedStop_IT
                0x0000000000000000       0x62 build/cubemx_stm32f411/Drivers/STM32F4xx_HAL_Driver/Src/stm32f4xx_hal_adc_ex.o
 .text.HAL_ADCEx_InjectedGetValue
                0x0000000000000000       0x32 build/cubemx_stm32f411/Drivers/STM32F4xx_HAL_Driver/Src/stm32f4xx_hal_adc_ex.o
 .text.HAL_ADCEx_MultiModeStart_DMA
                0x0000000000000000      0x110 build/cubemx_stm32f411/Drivers/STM32F4xx_HAL_Driver/Src/stm32f4xx_hal_adc_ex.o
 .text.HAL_ADCEx_MultiModeStop_DMA
                0x0000000000000000       0x60 build/cubemx_stm32f411/Drivers/STM32F4xx_HAL_Driver/Src/stm32f4xx_hal_adc_ex.o
 .text.HAL_ADCEx_MultiModeGetValue
                0x0000000000000000        0xc build/cubemx_stm32f411/Drivers/STM32F4xx_HAL_Driver/Src/stm32f4xx_hal_adc_ex.o
 .text.HAL_ADCEx_InjectedConvCpltCallback
                0x0000000000000000        0x2 build/cubemx_stm32f411/Drivers/STM32F4xx_HAL_Driver/Src/stm32f4xx_hal_adc_ex.o
 .text.HAL_ADCEx_InjectedConfigChannel
                0x0000000000000000      0x19c build/cubemx_stm32f411/Drivers/STM32F4xx_HAL_Driver/Src/stm32f4xx_hal_adc_ex.o
 .text.HAL_ADCEx_MultiModeConfigChannel
                0x0000000000000000       0x50 build/cubemx_stm32f411/Drivers/STM32F4xx_HAL_Driver/Src/stm32f4xx_hal_adc_ex.o
 .debug_info    0x0000000000000000      0xca1 build/cubemx_stm32f411/Drivers/STM32F4xx_HAL_Driver/Src/stm32f4xx_hal_adc_ex.o
 .debug_abbrev  0x0000000000000000      0x25e build/cubemx_stm32f411/Drivers/STM32F4xx_HAL_Driver/Src/stm32f4xx_hal_adc_ex.o
 .debug_loc     0x0000000000000000      0x985 build/cubemx_stm32f411/Drivers/STM32F4xx_HAL_Driver/Src/stm32f4xx_hal_adc_ex.o
 .debug_aranges
                0x0000000000000000       0x90 build/cubemx_stm32f411/Drivers/STM32F4xx_HAL_Driver/Src/stm32f4xx_hal_adc_ex.o
 .debug_ranges  0x0000000000000000       0x80 build/cubemx_stm32f411/Drivers/STM32F4xx_HAL_Driver/Src/stm32f4xx_hal_adc_ex.o
 .debug_line    0x0000000000000000      0xba1 build/cubemx_stm32f411/Drivers/STM32F4xx_HAL_Driver/Src/stm32f4xx_hal_adc_ex.o
 .debug_str     0x0000000000000000      0x9c6 build/cubemx_stm32f411/Drivers/STM32F4xx_HAL_Driver/Src/stm32f4xx_hal_adc_ex.o
 .comment       0x0000000000000000       0x4e build/cubemx_stm32f411/Drivers/STM32F4xx_HAL_Driver/Src/stm32f4xx_hal_adc_ex.o
 .debug_frame   0x0000000000000000      0x168 build/cubemx_stm32f411/Drivers/STM32F4xx_HAL_Driver/Src/stm32f4xx_hal_adc_ex.o
 .ARM.attributes
                0x0000000000000000       0x34 build/cubemx_stm32f411/Drivers/STM32F4xx_HAL_Driver/Src/stm32f4xx_hal_adc_ex.o
 .text          0x0000000000000000        0x0 build/cubemx_stm32f411/Drivers/STM32F4xx_HAL_Driver/Src/stm32f4xx_hal_dac.o
 .data          0x0000000000000000        0x0 build/cubemx_stm32f411/Drivers/STM32F4xx_HAL_Driver/Src/stm32f4xx_hal_dac.o
 .bss           0x0000000000000000        0x0 build/cubemx_stm32f411/Drivers/STM32F4xx_HAL_Driver/Src/stm32f4xx_hal_dac.o
 .debug_info    0x0000000000000000       0x64 build/cubemx_stm32f411/Drivers/STM32F4xx_HAL_Driver/Src/stm32f4xx_hal_dac.o
 .debug_abbrev  0x0000000000000000       0x26 build/cubemx_stm32f411/Drivers/STM32F4xx_HAL_Driver/Src/stm32f4xx_hal_dac.o
 .debug_aranges
                0x0000000000000000       0x18 build/cubemx_stm32f411/Drivers/STM32F4xx_HAL_Driver/Src/stm32f4xx_hal_dac.o
 .debug_line    0x0000000000000000       0x1d build/cubemx_stm32f411/Drivers/STM32F4xx_HAL_Driver/Src/stm32f4xx_hal_dac.o
 .debug_str     0x0000000000000000      0x1c0 build/cubemx_stm32f411/Drivers/STM32F4xx_HAL_Driver/Src/stm32f4xx_hal_dac.o
 .comment       0x0000000000000000       0x4e build/cubemx_stm32f411/Drivers/STM32F4xx_HAL_Driver/Src/stm32f4xx_hal_dac.o
 .ARM.attributes
                0x0000000000000000       0x39 build/cubemx_stm32f411/Drivers/STM32F4xx_HAL_Driver/Src/stm32f4xx_hal_dac.o
 .text          0x0000000000000000        0x0 build/cubemx_stm32f411/Drivers/STM32F4xx_HAL_Driver/Src/stm32f4xx_hal_dac_ex.o
 .data          0x0000000000000000        0x0 build/cubemx_stm32f411/Drivers/STM32F4xx_HAL_Driver/Src/stm32f4xx_hal_dac_ex.o
 .bss           0x0000000000000000        0x0 build/cubemx_stm32f411/Drivers/STM32F4xx_HAL_Driver/Src/stm32f4xx_hal_dac_ex.o
 .debug_info    0x0000000000000000       0x64 build/cubemx_stm32f411/Drivers/STM32F4xx_HAL_Driver/Src/stm32f4xx_hal_dac_ex.o
 .debug_abbrev  0x0000000000000000       0x26 build/cubemx_stm32f411/Drivers/STM32F4xx_HAL_Driver/Src/stm32f4xx_hal_dac_ex.o
 .debug_aranges
                0x0000000000000000       0x18 build/cubemx_stm32f411/Drivers/STM32F4xx_HAL_Driver/Src/stm32f4xx_hal_dac_ex.o
 .debug_line    0x0000000000000000       0x1d build/cubemx_stm32f411/Drivers/STM32F4xx_HAL_Driver/Src/stm32f4xx_hal_dac_ex.o
 .debug_str     0x0000000000000000      0x1c3 build/cubemx_stm32f411/Drivers/STM32F4xx_HAL_Driver/Src/stm32f4xx_hal_dac_ex.o
 .comment       0x0000000000000000       0x4e build/cubemx_stm32f411/Drivers/STM32F4xx_HAL_Driver/Src/stm32f4xx_hal_dac_ex.o
 .ARM.attributes
                0x0000000000000000       0x39 build/cubemx_stm32f411/Drivers/STM32F4xx_HAL_Driver/Src/stm32f4xx_hal_dac_ex.o
 .text          0x0000000000000000        0x0 build/cubemx_stm32f411/Drivers/STM32F4xx_HAL_Driver/Src/stm32f4xx_hal_tim.o
 .data          0x0000000000000000        0x0 build/cubemx_stm32f411/Drivers/STM32F4xx_HAL_Driver/Src/stm32f4xx_hal_tim.o
 .bss           0x0000000000000000        0x0 build/cubemx_stm32f411/Drivers/STM32F4xx_HAL_Driver/Src/stm32f4xx_hal_tim.o
 .text.TIM_OC1_SetConfig
                0x0000000000000000       0x50 build/cubemx_stm32f411/Drivers/STM32F4xx_HAL_Driver/Src/stm32f4xx_hal_tim.o
 .text.TIM_OC3_SetConfig
                0x0000000000000000       0x54 build/cubemx_stm32f411/Drivers/STM32F4xx_HAL_Driver/Src/stm32f4xx_hal_tim.o
 .text.TIM_OC4_SetConfig
                0x0000000000000000       0x44 build/cubemx_stm32f411/Drivers/STM32F4xx_HAL_Driver/Src/stm32f4xx_hal_tim.o
 .text.HAL_TIM_Base_MspInit
                0x0000000000000000        0x2 build/cubemx_stm32f411/Drivers/STM32F4xx_HAL_Driver/Src/stm32f4xx_hal_tim.o
 .text.HAL_TIM_Base_MspDeInit
                0x0000000000000000        0x2 build/cubemx_stm32f411/Drivers/STM32F4xx_HAL_Driver/Src/stm32f4xx_hal_tim.o
 .text.HAL_TIM_Base_DeInit
                0x0000000000000000       0x5e build/cubemx_stm32f411/Drivers/STM32F4xx_HAL_Driver/Src/stm32f4xx_hal_tim.o
 .text.HAL_TIM_Base_Start
                0x0000000000000000       0x5c build/cubemx_stm32f411/Drivers/STM32F4xx_HAL_Driver/Src/stm32f4xx_hal_tim.o
 .text.HAL_TIM_Base_Stop
                0x0000000000000000       0x28 build/cubemx_stm32f411/Drivers/STM32F4xx_HAL_Driver/Src/stm32f4xx_hal_tim.o
 .text.HAL_TIM_Base_Start_IT
                0x0000000000000000       0x64 build/cubemx_stm32f411/Drivers/STM32F4xx_HAL_Driver/Src/stm32f4xx_hal_tim.o
 .text.HAL_TIM_Base_Stop_IT
                0x0000000000000000       0x30 build/cubemx_stm32f411/Drivers/STM32F4xx_HAL_Driver/Src/stm32f4xx_hal_tim.o
 .text.HAL_TIM_Base_Start_DMA
                0x0000000000000000       0x9c build/cubemx_stm32f411/Drivers/STM32F4xx_HAL_Driver/Src/stm32f4xx_hal_tim.o
 .text.HAL_TIM_Base_Stop_DMA
                0x0000000000000000       0x3c build/cubemx_stm32f411/Drivers/STM32F4xx_HAL_Driver/Src/stm32f4xx_hal_tim.o
 .text.HAL_TIM_OC_MspInit
                0x0000000000000000        0x2 build/cubemx_stm32f411/Drivers/STM32F4xx_HAL_Driver/Src/stm32f4xx_hal_tim.o
 .text.HAL_TIM_OC_MspDeInit
                0x0000000000000000        0x2 build/cubemx_stm32f411/Drivers/STM32F4xx_HAL_Driver/Src/stm32f4xx_hal_tim.o
 .text.HAL_TIM_OC_DeInit
                0x0000000000000000       0x5e build/cubemx_stm32f411/Drivers/STM32F4xx_HAL_Driver/Src/stm32f4xx_hal_tim.o
 .text.HAL_TIM_PWM_MspInit
                0x0000000000000000        0x2 build/cubemx_stm32f411/Drivers/STM32F4xx_HAL_Driver/Src/stm32f4xx_hal_tim.o
 .text.HAL_TIM_PWM_MspDeInit
                0x0000000000000000        0x2 build/cubemx_stm32f411/Drivers/STM32F4xx_HAL_Driver/Src/stm32f4xx_hal_tim.o
 .text.HAL_TIM_PWM_DeInit
                0x0000000000000000       0x5e build/cubemx_stm32f411/Drivers/STM32F4xx_HAL_Driver/Src/stm32f4xx_hal_tim.o
 .text.HAL_TIM_IC_MspInit
                0x0000000000000000        0x2 build/cubemx_stm32f411/Drivers/STM32F4xx_HAL_Driver/Src/stm32f4xx_hal_tim.o
 .text.HAL_TIM_IC_MspDeInit
                0x0000000000000000        0x2 build/cubemx_stm32f411/Drivers/STM32F4xx_HAL_Driver/Src/stm32f4xx_hal_tim.o
 .text.HAL_TIM_IC_DeInit
                0x0000000000000000       0x5e build/cubemx_stm32f411/Drivers/STM32F4xx_HAL_Driver/Src/stm32f4xx_hal_tim.o
 .text.HAL_TIM_OnePulse_MspInit
                0x0000000000000000        0x2 build/cubemx_stm32f411/Drivers/STM32F4xx_HAL_Driver/Src/stm32f4xx_hal_tim.o
 .text.HAL_TIM_OnePulse_MspDeInit
                0x0000000000000000        0x2 build/cubemx_stm32f411/Drivers/STM32F4xx_HAL_Driver/Src/stm32f4xx_hal_tim.o
 .text.HAL_TIM_OnePulse_DeInit
                0x0000000000000000       0x4e build/cubemx_stm32f411/Drivers/STM32F4xx_HAL_Driver/Src/stm32f4xx_hal_tim.o
 .text.HAL_TIM_OnePulse_Start
                0x0000000000000000       0x78 build/cubemx_stm32f411/Drivers/STM32F4xx_HAL_Driver/Src/stm32f4xx_hal_tim.o
 .text.HAL_TIM_OnePulse_Stop
                0x0000000000000000       0x74 build/cubemx_stm32f411/Drivers/STM32F4xx_HAL_Driver/Src/stm32f4xx_hal_tim.o
 .text.HAL_TIM_OnePulse_Start_IT
                0x0000000000000000       0x88 build/cubemx_stm32f411/Drivers/STM32F4xx_HAL_Driver/Src/stm32f4xx_hal_tim.o
 .text.HAL_TIM_OnePulse_Stop_IT
                0x0000000000000000       0x84 build/cubemx_stm32f411/Drivers/STM32F4xx_HAL_Driver/Src/stm32f4xx_hal_tim.o
 .text.HAL_TIM_Encoder_MspInit
                0x0000000000000000        0x2 build/cubemx_stm32f411/Drivers/STM32F4xx_HAL_Driver/Src/stm32f4xx_hal_tim.o
 .text.HAL_TIM_Encoder_MspDeInit
                0x0000000000000000        0x2 build/cubemx_stm32f411/Drivers/STM32F4xx_HAL_Driver/Src/stm32f4xx_hal_tim.o
 .text.HAL_TIM_Encoder_DeInit
                0x0000000000000000       0x4e build/cubemx_stm32f411/Drivers/STM32F4xx_HAL_Driver/Src/stm32f4xx_hal_tim.o
 .text.HAL_TIM_Encoder_Start
                0x0000000000000000       0xb6 build/cubemx_stm32f411/Drivers/STM32F4xx_HAL_Driver/Src/stm32f4xx_hal_tim.o
 .text.HAL_TIM_Encoder_Stop
                0x0000000000000000       0x72 build/cubemx_stm32f411/Drivers/STM32F4xx_HAL_Driver/Src/stm32f4xx_hal_tim.o
 .text.HAL_TIM_Encoder_Start_IT
                0x0000000000000000       0xde build/cubemx_stm32f411/Drivers/STM32F4xx_HAL_Driver/Src/stm32f4xx_hal_tim.o
 .text.HAL_TIM_Encoder_Stop_IT
                0x0000000000000000       0x98 build/cubemx_stm32f411/Drivers/STM32F4xx_HAL_Driver/Src/stm32f4xx_hal_tim.o
 .text.HAL_TIM_Encoder_Start_DMA
                0x0000000000000000      0x1a0 build/cubemx_stm32f411/Drivers/STM32F4xx_HAL_Driver/Src/stm32f4xx_hal_tim.o
 .text.HAL_TIM_Encoder_Stop_DMA
                0x0000000000000000       0xb6 build/cubemx_stm32f411/Drivers/STM32F4xx_HAL_Driver/Src/stm32f4xx_hal_tim.o
 .text.HAL_TIM_DMABurst_MultiWriteStart
                0x0000000000000000       0xd4 build/cubemx_stm32f411/Drivers/STM32F4xx_HAL_Driver/Src/stm32f4xx_hal_tim.o
 .text.HAL_TIM_DMABurst_WriteStart
                0x0000000000000000       0x14 build/cubemx_stm32f411/Drivers/STM32F4xx_HAL_Driver/Src/stm32f4xx_hal_tim.o
 .text.HAL_TIM_DMABurst_WriteStop
                0x0000000000000000       0x68 build/cubemx_stm32f411/Drivers/STM32F4xx_HAL_Driver/Src/stm32f4xx_hal_tim.o
 .text.HAL_TIM_DMABurst_MultiReadStart
                0x0000000000000000       0xd4 build/cubemx_stm32f411/Drivers/STM32F4xx_HAL_Driver/Src/stm32f4xx_hal_tim.o
 .text.HAL_TIM_DMABurst_ReadStart
                0x0000000000000000       0x14 build/cubemx_stm32f411/Drivers/STM32F4xx_HAL_Driver/Src/stm32f4xx_hal_tim.o
 .text.HAL_TIM_DMABurst_ReadStop
                0x0000000000000000        0x4 build/cubemx_stm32f411/Drivers/STM32F4xx_HAL_Driver/Src/stm32f4xx_hal_tim.o
 .text.HAL_TIM_GenerateEvent
                0x0000000000000000       0x24 build/cubemx_stm32f411/Drivers/STM32F4xx_HAL_Driver/Src/stm32f4xx_hal_tim.o
 .text.HAL_TIM_ConfigTI1Input
                0x0000000000000000       0x10 build/cubemx_stm32f411/Drivers/STM32F4xx_HAL_Driver/Src/stm32f4xx_hal_tim.o
 .text.HAL_TIM_ReadCapturedValue
                0x0000000000000000       0x2c build/cubemx_stm32f411/Drivers/STM32F4xx_HAL_Driver/Src/stm32f4xx_hal_tim.o
 .text.HAL_TIM_PeriodElapsedCallback
                0x0000000000000000        0x2 build/cubemx_stm32f411/Drivers/STM32F4xx_HAL_Driver/Src/stm32f4xx_hal_tim.o
 .text.TIM_DMAPeriodElapsedCplt
                0x0000000000000000       0x16 build/cubemx_stm32f411/Drivers/STM32F4xx_HAL_Driver/Src/stm32f4xx_hal_tim.o
 .text.HAL_TIM_PeriodElapsedHalfCpltCallback
                0x0000000000000000        0x2 build/cubemx_stm32f411/Drivers/STM32F4xx_HAL_Driver/Src/stm32f4xx_hal_tim.o
 .text.TIM_DMAPeriodElapsedHalfCplt
                0x0000000000000000        0xa build/cubemx_stm32f411/Drivers/STM32F4xx_HAL_Driver/Src/stm32f4xx_hal_tim.o
 .text.HAL_TIM_OC_DelayElapsedCallback
                0x0000000000000000        0x2 build/cubemx_stm32f411/Drivers/STM32F4xx_HAL_Driver/Src/stm32f4xx_hal_tim.o
 .text.HAL_TIM_IC_CaptureCallback
                0x0000000000000000        0x2 build/cubemx_stm32f411/Drivers/STM32F4xx_HAL_Driver/Src/stm32f4xx_hal_tim.o
 .text.TIM_DMACaptureCplt
                0x0000000000000000       0x7a build/cubemx_stm32f411/Drivers/STM32F4xx_HAL_Driver/Src/stm32f4xx_hal_tim.o
 .text.HAL_TIM_IC_CaptureHalfCpltCallback
                0x0000000000000000        0x2 build/cubemx_stm32f411/Drivers/STM32F4xx_HAL_Driver/Src/stm32f4xx_hal_tim.o
 .text.TIM_DMACaptureHalfCplt
                0x0000000000000000       0x38 build/cubemx_stm32f411/Drivers/STM32F4xx_HAL_Driver/Src/stm32f4xx_hal_tim.o
 .text.HAL_TIM_PWM_PulseFinishedCallback
                0x0000000000000000        0x2 build/cubemx_stm32f411/Drivers/STM32F4xx_HAL_Driver/Src/stm32f4xx_hal_tim.o
 .text.TIM_DMADelayPulseCplt
                0x0000000000000000       0x6a build/cubemx_stm32f411/Drivers/STM32F4xx_HAL_Driver/Src/stm32f4xx_hal_tim.o
 .text.HAL_TIM_PWM_PulseFinishedHalfCpltCallback
                0x0000000000000000        0x2 build/cubemx_stm32f411/Drivers/STM32F4xx_HAL_Driver/Src/stm32f4xx_hal_tim.o
 .text.TIM_DMADelayPulseHalfCplt
                0x0000000000000000       0x38 build/cubemx_stm32f411/Drivers/STM32F4xx_HAL_Driver/Src/stm32f4xx_hal_tim.o
 .text.HAL_TIM_TriggerCallback
                0x0000000000000000        0x2 build/cubemx_stm32f411/Drivers/STM32F4xx_HAL_Driver/Src/stm32f4xx_hal_tim.o
 .text.HAL_TIM_IRQHandler
                0x0000000000000000      0x144 build/cubemx_stm32f411/Drivers/STM32F4xx_HAL_Driver/Src/stm32f4xx_hal_tim.o
 .text.TIM_DMATriggerCplt
                0x0000000000000000       0x16 build/cubemx_stm32f411/Drivers/STM32F4xx_HAL_Driver/Src/stm32f4xx_hal_tim.o
 .text.HAL_TIM_TriggerHalfCpltCallback
                0x0000000000000000        0x2 build/cubemx_stm32f411/Drivers/STM32F4xx_HAL_Driver/Src/stm32f4xx_hal_tim.o
 .text.TIM_DMATriggerHalfCplt
                0x0000000000000000        0xa build/cubemx_stm32f411/Drivers/STM32F4xx_HAL_Driver/Src/stm32f4xx_hal_tim.o
 .text.HAL_TIM_ErrorCallback
                0x0000000000000000        0x2 build/cubemx_stm32f411/Drivers/STM32F4xx_HAL_Driver/Src/stm32f4xx_hal_tim.o
 .text.TIM_DMAError
                0x0000000000000000       0x58 build/cubemx_stm32f411/Drivers/STM32F4xx_HAL_Driver/Src/stm32f4xx_hal_tim.o
 .text.HAL_TIM_Base_GetState
                0x0000000000000000        0x6 build/cubemx_stm32f411/Drivers/STM32F4xx_HAL_Driver/Src/stm32f4xx_hal_tim.o
 .text.HAL_TIM_OC_GetState
                0x0000000000000000        0x6 build/cubemx_stm32f411/Drivers/STM32F4xx_HAL_Driver/Src/stm32f4xx_hal_tim.o
 .text.HAL_TIM_PWM_GetState
                0x0000000000000000        0x6 build/cubemx_stm32f411/Drivers/STM32F4xx_HAL_Driver/Src/stm32f4xx_hal_tim.o
 .text.HAL_TIM_IC_GetState
                0x0000000000000000        0x6 build/cubemx_stm32f411/Drivers/STM32F4xx_HAL_Driver/Src/stm32f4xx_hal_tim.o
 .text.HAL_TIM_OnePulse_GetState
                0x0000000000000000        0x6 build/cubemx_stm32f411/Drivers/STM32F4xx_HAL_Driver/Src/stm32f4xx_hal_tim.o
 .text.HAL_TIM_Encoder_GetState
                0x0000000000000000        0x6 build/cubemx_stm32f411/Drivers/STM32F4xx_HAL_Driver/Src/stm32f4xx_hal_tim.o
 .text.HAL_TIM_GetActiveChannel
                0x0000000000000000        0x4 build/cubemx_stm32f411/Drivers/STM32F4xx_HAL_Driver/Src/stm32f4xx_hal_tim.o
 .text.HAL_TIM_GetChannelState
                0x0000000000000000       0x22 build/cubemx_stm32f411/Drivers/STM32F4xx_HAL_Driver/Src/stm32f4xx_hal_tim.o
 .text.HAL_TIM_DMABurstState
                0x0000000000000000        0x6 build/cubemx_stm32f411/Drivers/STM32F4xx_HAL_Driver/Src/stm32f4xx_hal_tim.o
 .text.TIM_Base_SetConfig
                0x0000000000000000       0x9c build/cubemx_stm32f411/Drivers/STM32F4xx_HAL_Driver/Src/stm32f4xx_hal_tim.o
 .text.HAL_TIM_Base_Init
                0x0000000000000000       0x58 build/cubemx_stm32f411/Drivers/STM32F4xx_HAL_Driver/Src/stm32f4xx_hal_tim.o
 .text.HAL_TIM_OC_Init
                0x0000000000000000       0x58 build/cubemx_stm32f411/Drivers/STM32F4xx_HAL_Driver/Src/stm32f4xx_hal_tim.o
 .text.HAL_TIM_PWM_Init
                0x0000000000000000       0x58 build/cubemx_stm32f411/Drivers/STM32F4xx_HAL_Driver/Src/stm32f4xx_hal_tim.o
 .text.HAL_TIM_IC_Init
                0x0000000000000000       0x58 build/cubemx_stm32f411/Drivers/STM32F4xx_HAL_Driver/Src/stm32f4xx_hal_tim.o
 .text.HAL_TIM_OnePulse_Init
                0x0000000000000000       0x5a build/cubemx_stm32f411/Drivers/STM32F4xx_HAL_Driver/Src/stm32f4xx_hal_tim.o
 .text.HAL_TIM_Encoder_Init
                0x0000000000000000       0xaa build/cubemx_stm32f411/Drivers/STM32F4xx_HAL_Driver/Src/stm32f4xx_hal_tim.o
 .text.TIM_OC2_SetConfig
                0x0000000000000000       0x58 build/cubemx_stm32f411/Drivers/STM32F4xx_HAL_Driver/Src/stm32f4xx_hal_tim.o
 .text.HAL_TIM_OC_ConfigChannel
                0x0000000000000000       0x50 build/cubemx_stm32f411/Drivers/STM32F4xx_HAL_Driver/Src/stm32f4xx_hal_tim.o
 .text.HAL_TIM_PWM_ConfigChannel
                0x0000000000000000       0xb8 build/cubemx_stm32f411/Drivers/STM32F4xx_HAL_Driver/Src/stm32f4xx_hal_tim.o
 .text.TIM_TI1_SetConfig
                0x0000000000000000       0x64 build/cubemx_stm32f411/Drivers/STM32F4xx_HAL_Driver/Src/stm32f4xx_hal_tim.o
 .text.HAL_TIM_IC_ConfigChannel
                0x0000000000000000      0x126 build/cubemx_stm32f411/Drivers/STM32F4xx_HAL_Driver/Src/stm32f4xx_hal_tim.o
 .text.HAL_TIM_OnePulse_ConfigChannel
                0x0000000000000000      0x10c build/cubemx_stm32f411/Drivers/STM32F4xx_HAL_Driver/Src/stm32f4xx_hal_tim.o
 .text.TIM_ETR_SetConfig
                0x0000000000000000       0x14 build/cubemx_stm32f411/Drivers/STM32F4xx_HAL_Driver/Src/stm32f4xx_hal_tim.o
 .text.HAL_TIM_ConfigOCrefClear
                0x0000000000000000       0xd2 build/cubemx_stm32f411/Drivers/STM32F4xx_HAL_Driver/Src/stm32f4xx_hal_tim.o
 .text.HAL_TIM_ConfigClockSource
                0x0000000000000000      0x138 build/cubemx_stm32f411/Drivers/STM32F4xx_HAL_Driver/Src/stm32f4xx_hal_tim.o
 .text.TIM_SlaveTimer_SetConfig
                0x0000000000000000       0xc0 build/cubemx_stm32f411/Drivers/STM32F4xx_HAL_Driver/Src/stm32f4xx_hal_tim.o
 .text.HAL_TIM_SlaveConfigSynchro
                0x0000000000000000       0x4e build/cubemx_stm32f411/Drivers/STM32F4xx_HAL_Driver/Src/stm32f4xx_hal_tim.o
 .text.HAL_TIM_SlaveConfigSynchro_IT
                0x0000000000000000       0x4e build/cubemx_stm32f411/Drivers/STM32F4xx_HAL_Driver/Src/stm32f4xx_hal_tim.o
 .text.TIM_CCxChannelCmd
                0x0000000000000000       0x1c build/cubemx_stm32f411/Drivers/STM32F4xx_HAL_Driver/Src/stm32f4xx_hal_tim.o
 .text.HAL_TIM_OC_Start
                0x0000000000000000       0xb4 build/cubemx_stm32f411/Drivers/STM32F4xx_HAL_Driver/Src/stm32f4xx_hal_tim.o
 .text.HAL_TIM_PWM_Start
                0x0000000000000000        0x4 build/cubemx_stm32f411/Drivers/STM32F4xx_HAL_Driver/Src/stm32f4xx_hal_tim.o
 .text.HAL_TIM_OC_Stop
                0x0000000000000000       0x78 build/cubemx_stm32f411/Drivers/STM32F4xx_HAL_Driver/Src/stm32f4xx_hal_tim.o
 .text.HAL_TIM_PWM_Stop
                0x0000000000000000        0x4 build/cubemx_stm32f411/Drivers/STM32F4xx_HAL_Driver/Src/stm32f4xx_hal_tim.o
 .text.HAL_TIM_OC_Start_IT
                0x0000000000000000       0xdc build/cubemx_stm32f411/Drivers/STM32F4xx_HAL_Driver/Src/stm32f4xx_hal_tim.o
 .text.HAL_TIM_PWM_Start_IT
                0x0000000000000000        0x4 build/cubemx_stm32f411/Drivers/STM32F4xx_HAL_Driver/Src/stm32f4xx_hal_tim.o
 .text.HAL_TIM_OC_Stop_IT
                0x0000000000000000       0xb4 build/cubemx_stm32f411/Drivers/STM32F4xx_HAL_Driver/Src/stm32f4xx_hal_tim.o
 .text.HAL_TIM_PWM_Stop_IT
                0x0000000000000000        0x4 build/cubemx_stm32f411/Drivers/STM32F4xx_HAL_Driver/Src/stm32f4xx_hal_tim.o
 .text.HAL_TIM_OC_Start_DMA
                0x0000000000000000      0x1a8 build/cubemx_stm32f411/Drivers/STM32F4xx_HAL_Driver/Src/stm32f4xx_hal_tim.o
 .text.HAL_TIM_PWM_Start_DMA
                0x0000000000000000        0x4 build/cubemx_stm32f411/Drivers/STM32F4xx_HAL_Driver/Src/stm32f4xx_hal_tim.o
 .text.HAL_TIM_OC_Stop_DMA
                0x0000000000000000       0xc8 build/cubemx_stm32f411/Drivers/STM32F4xx_HAL_Driver/Src/stm32f4xx_hal_tim.o
 .text.HAL_TIM_PWM_Stop_DMA
                0x0000000000000000        0x4 build/cubemx_stm32f411/Drivers/STM32F4xx_HAL_Driver/Src/stm32f4xx_hal_tim.o
 .text.HAL_TIM_IC_Start
                0x0000000000000000       0xd0 build/cubemx_stm32f411/Drivers/STM32F4xx_HAL_Driver/Src/stm32f4xx_hal_tim.o
 .text.HAL_TIM_IC_Stop
                0x0000000000000000       0x60 build/cubemx_stm32f411/Drivers/STM32F4xx_HAL_Driver/Src/stm32f4xx_hal_tim.o
 .text.HAL_TIM_IC_Start_IT
                0x0000000000000000       0xf8 build/cubemx_stm32f411/Drivers/STM32F4xx_HAL_Driver/Src/stm32f4xx_hal_tim.o
 .text.HAL_TIM_IC_Stop_IT
                0x0000000000000000       0x9e build/cubemx_stm32f411/Drivers/STM32F4xx_HAL_Driver/Src/stm32f4xx_hal_tim.o
 .text.HAL_TIM_IC_Start_DMA
                0x0000000000000000      0x1c0 build/cubemx_stm32f411/Drivers/STM32F4xx_HAL_Driver/Src/stm32f4xx_hal_tim.o
 .text.HAL_TIM_IC_Stop_DMA
                0x0000000000000000       0xae build/cubemx_stm32f411/Drivers/STM32F4xx_HAL_Driver/Src/stm32f4xx_hal_tim.o
 .debug_info    0x0000000000000000     0x426e build/cubemx_stm32f411/Drivers/STM32F4xx_HAL_Driver/Src/stm32f4xx_hal_tim.o
 .debug_abbrev  0x0000000000000000      0x351 build/cubemx_stm32f411/Drivers/STM32F4xx_HAL_Driver/Src/stm32f4xx_hal_tim.o
 .debug_loc     0x0000000000000000     0x4589 build/cubemx_stm32f411/Drivers/STM32F4xx_HAL_Driver/Src/stm32f4xx_hal_tim.o
 .debug_aranges
                0x0000000000000000      0x298 build/cubemx_stm32f411/Drivers/STM32F4xx_HAL_Driver/Src/stm32f4xx_hal_tim.o
 .debug_ranges  0x0000000000000000      0x3a8 build/cubemx_stm32f411/Drivers/STM32F4xx_HAL_Driver/Src/stm32f4xx_hal_tim.o
 .debug_line    0x0000000000000000     0x4068 build/cubemx_stm32f411/Drivers/STM32F4xx_HAL_Driver/Src/stm32f4xx_hal_tim.o
 .debug_str     0x0000000000000000     0x16c9 build/cubemx_stm32f411/Drivers/STM32F4xx_HAL_Driver/Src/stm32f4xx_hal_tim.o
 .comment       0x0000000000000000       0x4e build/cubemx_stm32f411/Drivers/STM32F4xx_HAL_Driver/Src/stm32f4xx_hal_tim.o
 .debug_frame   0x0000000000000000      0x9ec build/cubemx_stm32f411/Drivers/STM32F4xx_HAL_Driver/Src/stm32f4xx_hal_tim.o
 .ARM.attributes
                0x0000000000000000       0x34 build/cubemx_stm32f411/Drivers/STM32F4xx_HAL_Driver/Src/stm32f4xx_hal_tim.o
 .text          0x0000000000000000        0x0 build/cubemx_stm32f411/Drivers/STM32F4xx_HAL_Driver/Src/stm32f4xx_hal_tim_ex.o
 .data          0x0000000000000000        0x0 build/cubemx_stm32f411/Drivers/STM32F4xx_HAL_Driver/Src/stm32f4xx_hal_tim_ex.o
 .bss           0x0000000000000000        0x0 build/cubemx_stm32f411/Drivers/STM32F4xx_HAL_Driver/Src/stm32f4xx_hal_tim_ex.o
 .text.TIM_CCxNChannelCmd
                0x0000000000000000       0x1c build/cubemx_stm32f411/Drivers/STM32F4xx_HAL_Driver/Src/stm32f4xx_hal_tim_ex.o
 .text.TIM_DMAErrorCCxN
                0x0000000000000000       0x42 build/cubemx_stm32f411/Drivers/STM32F4xx_HAL_Driver/Src/stm32f4xx_hal_tim_ex.o
 .text.TIM_DMADelayPulseNCplt
                0x0000000000000000       0x6a build/cubemx_stm32f411/Drivers/STM32F4xx_HAL_Driver/Src/stm32f4xx_hal_tim_ex.o
 .text.HAL_TIMEx_HallSensor_MspInit
                0x0000000000000000        0x2 build/cubemx_stm32f411/Drivers/STM32F4xx_HAL_Driver/Src/stm32f4xx_hal_tim_ex.o
 .text.HAL_TIMEx_HallSensor_Init
                0x0000000000000000       0xc2 build/cubemx_stm32f411/Drivers/STM32F4xx_HAL_Driver/Src/stm32f4xx_hal_tim_ex.o
 .text.HAL_TIMEx_HallSensor_MspDeInit
                0x0000000000000000        0x2 build/cubemx_stm32f411/Drivers/STM32F4xx_HAL_Driver/Src/stm32f4xx_hal_tim_ex.o
 .text.HAL_TIMEx_HallSensor_DeInit
                0x0000000000000000       0x4e build/cubemx_stm32f411/Drivers/STM32F4xx_HAL_Driver/Src/stm32f4xx_hal_tim_ex.o
 .text.HAL_TIMEx_HallSensor_Start
                0x0000000000000000       0x90 build/cubemx_stm32f411/Drivers/STM32F4xx_HAL_Driver/Src/stm32f4xx_hal_tim_ex.o
 .text.HAL_TIMEx_HallSensor_Stop
                0x0000000000000000       0x42 build/cubemx_stm32f411/Drivers/STM32F4xx_HAL_Driver/Src/stm32f4xx_hal_tim_ex.o
 .text.HAL_TIMEx_HallSensor_Start_IT
                0x0000000000000000       0x98 build/cubemx_stm32f411/Drivers/STM32F4xx_HAL_Driver/Src/stm32f4xx_hal_tim_ex.o
 .text.HAL_TIMEx_HallSensor_Stop_IT
                0x0000000000000000       0x4a build/cubemx_stm32f411/Drivers/STM32F4xx_HAL_Driver/Src/stm32f4xx_hal_tim_ex.o
 .text.HAL_TIMEx_HallSensor_Start_DMA
                0x0000000000000000       0xc0 build/cubemx_stm32f411/Drivers/STM32F4xx_HAL_Driver/Src/stm32f4xx_hal_tim_ex.o
 .text.HAL_TIMEx_HallSensor_Stop_DMA
                0x0000000000000000       0x4a build/cubemx_stm32f411/Drivers/STM32F4xx_HAL_Driver/Src/stm32f4xx_hal_tim_ex.o
 .text.HAL_TIMEx_OCN_Start
                0x0000000000000000       0xa8 build/cubemx_stm32f411/Drivers/STM32F4xx_HAL_Driver/Src/stm32f4xx_hal_tim_ex.o
 .text.HAL_TIMEx_OCN_Stop
                0x0000000000000000       0x6c build/cubemx_stm32f411/Drivers/STM32F4xx_HAL_Driver/Src/stm32f4xx_hal_tim_ex.o
 .text.HAL_TIMEx_OCN_Start_IT
                0x0000000000000000       0xd4 build/cubemx_stm32f411/Drivers/STM32F4xx_HAL_Driver/Src/stm32f4xx_hal_tim_ex.o
 .text.HAL_TIMEx_OCN_Stop_IT
                0x0000000000000000       0xb0 build/cubemx_stm32f411/Drivers/STM32F4xx_HAL_Driver/Src/stm32f4xx_hal_tim_ex.o
 .text.HAL_TIMEx_OCN_Start_DMA
                0x0000000000000000      0x188 build/cubemx_stm32f411/Drivers/STM32F4xx_HAL_Driver/Src/stm32f4xx_hal_tim_ex.o
 .text.HAL_TIMEx_OCN_Stop_DMA
                0x0000000000000000       0xac build/cubemx_stm32f411/Drivers/STM32F4xx_HAL_Driver/Src/stm32f4xx_hal_tim_ex.o
 .text.HAL_TIMEx_PWMN_Start
                0x0000000000000000        0x4 build/cubemx_stm32f411/Drivers/STM32F4xx_HAL_Driver/Src/stm32f4xx_hal_tim_ex.o
 .text.HAL_TIMEx_PWMN_Stop
                0x0000000000000000        0x4 build/cubemx_stm32f411/Drivers/STM32F4xx_HAL_Driver/Src/stm32f4xx_hal_tim_ex.o
 .text.HAL_TIMEx_PWMN_Start_IT
                0x0000000000000000        0x4 build/cubemx_stm32f411/Drivers/STM32F4xx_HAL_Driver/Src/stm32f4xx_hal_tim_ex.o
 .text.HAL_TIMEx_PWMN_Stop_IT
                0x0000000000000000        0x4 build/cubemx_stm32f411/Drivers/STM32F4xx_HAL_Driver/Src/stm32f4xx_hal_tim_ex.o
 .text.HAL_TIMEx_PWMN_Start_DMA
                0x0000000000000000        0x4 build/cubemx_stm32f411/Drivers/STM32F4xx_HAL_Driver/Src/stm32f4xx_hal_tim_ex.o
 .text.HAL_TIMEx_PWMN_Stop_DMA
                0x0000000000000000        0x4 build/cubemx_stm32f411/Drivers/STM32F4xx_HAL_Driver/Src/stm32f4xx_hal_tim_ex.o
 .text.HAL_TIMEx_OnePulseN_Start
                0x0000000000000000       0x6c build/cubemx_stm32f411/Drivers/STM32F4xx_HAL_Driver/Src/stm32f4xx_hal_tim_ex.o
 .text.HAL_TIMEx_OnePulseN_Stop
                0x0000000000000000       0x6e build/cubemx_stm32f411/Drivers/STM32F4xx_HAL_Driver/Src/stm32f4xx_hal_tim_ex.o
 .text.HAL_TIMEx_OnePulseN_Start_IT
                0x0000000000000000       0x7c build/cubemx_stm32f411/Drivers/STM32F4xx_HAL_Driver/Src/stm32f4xx_hal_tim_ex.o
 .text.HAL_TIMEx_OnePulseN_Stop_IT
                0x0000000000000000       0x7e build/cubemx_stm32f411/Drivers/STM32F4xx_HAL_Driver/Src/stm32f4xx_hal_tim_ex.o
 .text.HAL_TIMEx_ConfigCommutEvent
                0x0000000000000000       0x5a build/cubemx_stm32f411/Drivers/STM32F4xx_HAL_Driver/Src/stm32f4xx_hal_tim_ex.o
 .text.HAL_TIMEx_ConfigCommutEvent_IT
                0x0000000000000000       0x5a build/cubemx_stm32f411/Drivers/STM32F4xx_HAL_Driver/Src/stm32f4xx_hal_tim_ex.o
 .text.HAL_TIMEx_ConfigCommutEvent_DMA
                0x0000000000000000       0x74 build/cubemx_stm32f411/Drivers/STM32F4xx_HAL_Driver/Src/stm32f4xx_hal_tim_ex.o
 .text.HAL_TIMEx_MasterConfigSynchronization
                0x0000000000000000       0x6c build/cubemx_stm32f411/Drivers/STM32F4xx_HAL_Driver/Src/stm32f4xx_hal_tim_ex.o
 .text.HAL_TIMEx_ConfigBreakDeadTime
                0x0000000000000000       0x4c build/cubemx_stm32f411/Drivers/STM32F4xx_HAL_Driver/Src/stm32f4xx_hal_tim_ex.o
 .text.HAL_TIMEx_RemapConfig
                0x0000000000000000       0x1a build/cubemx_stm32f411/Drivers/STM32F4xx_HAL_Driver/Src/stm32f4xx_hal_tim_ex.o
 .text.HAL_TIMEx_CommutCallback
                0x0000000000000000        0x2 build/cubemx_stm32f411/Drivers/STM32F4xx_HAL_Driver/Src/stm32f4xx_hal_tim_ex.o
 .text.TIMEx_DMACommutationCplt
                0x0000000000000000       0x10 build/cubemx_stm32f411/Drivers/STM32F4xx_HAL_Driver/Src/stm32f4xx_hal_tim_ex.o
 .text.HAL_TIMEx_CommutHalfCpltCallback
                0x0000000000000000        0x2 build/cubemx_stm32f411/Drivers/STM32F4xx_HAL_Driver/Src/stm32f4xx_hal_tim_ex.o
 .text.TIMEx_DMACommutationHalfCplt
                0x0000000000000000       0x10 build/cubemx_stm32f411/Drivers/STM32F4xx_HAL_Driver/Src/stm32f4xx_hal_tim_ex.o
 .text.HAL_TIMEx_BreakCallback
                0x0000000000000000        0x2 build/cubemx_stm32f411/Drivers/STM32F4xx_HAL_Driver/Src/stm32f4xx_hal_tim_ex.o
 .text.HAL_TIMEx_HallSensor_GetState
                0x0000000000000000        0x6 build/cubemx_stm32f411/Drivers/STM32F4xx_HAL_Driver/Src/stm32f4xx_hal_tim_ex.o
 .text.HAL_TIMEx_GetChannelNState
                0x0000000000000000       0x22 build/cubemx_stm32f411/Drivers/STM32F4xx_HAL_Driver/Src/stm32f4xx_hal_tim_ex.o
 .debug_info    0x0000000000000000     0x1917 build/cubemx_stm32f411/Drivers/STM32F4xx_HAL_Driver/Src/stm32f4xx_hal_tim_ex.o
 .debug_abbrev  0x0000000000000000      0x2c8 build/cubemx_stm32f411/Drivers/STM32F4xx_HAL_Driver/Src/stm32f4xx_hal_tim_ex.o
 .debug_loc     0x0000000000000000     0x1299 build/cubemx_stm32f411/Drivers/STM32F4xx_HAL_Driver/Src/stm32f4xx_hal_tim_ex.o
 .debug_aranges
                0x0000000000000000      0x118 build/cubemx_stm32f411/Drivers/STM32F4xx_HAL_Driver/Src/stm32f4xx_hal_tim_ex.o
 .debug_ranges  0x0000000000000000      0x108 build/cubemx_stm32f411/Drivers/STM32F4xx_HAL_Driver/Src/stm32f4xx_hal_tim_ex.o
 .debug_line    0x0000000000000000     0x1509 build/cubemx_stm32f411/Drivers/STM32F4xx_HAL_Driver/Src/stm32f4xx_hal_tim_ex.o
 .debug_str     0x0000000000000000      0xeca build/cubemx_stm32f411/Drivers/STM32F4xx_HAL_Driver/Src/stm32f4xx_hal_tim_ex.o
 .comment       0x0000000000000000       0x4e build/cubemx_stm32f411/Drivers/STM32F4xx_HAL_Driver/Src/stm32f4xx_hal_tim_ex.o
 .debug_frame   0x0000000000000000      0x3d4 build/cubemx_stm32f411/Drivers/STM32F4xx_HAL_Driver/Src/stm32f4xx_hal_tim_ex.o
 .ARM.attributes
                0x0000000000000000       0x34 build/cubemx_stm32f411/Drivers/STM32F4xx_HAL_Driver/Src/stm32f4xx_hal_tim_ex.o
 .text          0x0000000000000000        0x0 build/cubemx_stm32f411/Drivers/STM32F4xx_HAL_Driver/Src/stm32f4xx_hal_flash.o
 .data          0x0000000000000000        0x0 build/cubemx_stm32f411/Drivers/STM32F4xx_HAL_Driver/Src/stm32f4xx_hal_flash.o
 .bss           0x0000000000000000        0x0 build/cubemx_stm32f411/Drivers/STM32F4xx_HAL_Driver/Src/stm32f4xx_hal_flash.o
 .text.FLASH_Program_DoubleWord
                0x0000000000000000       0x2c build/cubemx_stm32f411/Drivers/STM32F4xx_HAL_Driver/Src/stm32f4xx_hal_flash.o
 .text.FLASH_Program_Word
                0x0000000000000000       0x24 build/cubemx_stm32f411/Drivers/STM32F4xx_HAL_Driver/Src/stm32f4xx_hal_flash.o
 .text.FLASH_Program_HalfWord
                0x0000000000000000       0x24 build/cubemx_stm32f411/Drivers/STM32F4xx_HAL_Driver/Src/stm32f4xx_hal_flash.o
 .text.FLASH_SetErrorCode
                0x0000000000000000       0x8c build/cubemx_stm32f411/Drivers/STM32F4xx_HAL_Driver/Src/stm32f4xx_hal_flash.o
 .text.HAL_FLASH_Program_IT
                0x0000000000000000       0x74 build/cubemx_stm32f411/Drivers/STM32F4xx_HAL_Driver/Src/stm32f4xx_hal_flash.o
 .text.HAL_FLASH_EndOfOperationCallback
                0x0000000000000000        0x2 build/cubemx_stm32f411/Drivers/STM32F4xx_HAL_Driver/Src/stm32f4xx_hal_flash.o
 .text.HAL_FLASH_OperationErrorCallback
                0x0000000000000000        0x2 build/cubemx_stm32f411/Drivers/STM32F4xx_HAL_Driver/Src/stm32f4xx_hal_flash.o
 .text.HAL_FLASH_IRQHandler
                0x0000000000000000       0xc4 build/cubemx_stm32f411/Drivers/STM32F4xx_HAL_Driver/Src/stm32f4xx_hal_flash.o
 .text.HAL_FLASH_Unlock
                0x0000000000000000       0x24 build/cubemx_stm32f411/Drivers/STM32F4xx_HAL_Driver/Src/stm32f4xx_hal_flash.o
 .text.HAL_FLASH_Lock
                0x0000000000000000       0x14 build/cubemx_stm32f411/Drivers/STM32F4xx_HAL_Driver/Src/stm32f4xx_hal_flash.o
 .text.HAL_FLASH_OB_Unlock
                0x0000000000000000       0x24 build/cubemx_stm32f411/Drivers/STM32F4xx_HAL_Driver/Src/stm32f4xx_hal_flash.o
 .text.HAL_FLASH_OB_Lock
                0x0000000000000000       0x14 build/cubemx_stm32f411/Drivers/STM32F4xx_HAL_Driver/Src/stm32f4xx_hal_flash.o
 .text.HAL_FLASH_GetError
                0x0000000000000000        0xc build/cubemx_stm32f411/Drivers/STM32F4xx_HAL_Driver/Src/stm32f4xx_hal_flash.o
 .text.FLASH_WaitForLastOperation
                0x0000000000000000       0x50 build/cubemx_stm32f411/Drivers/STM32F4xx_HAL_Driver/Src/stm32f4xx_hal_flash.o
 .text.HAL_FLASH_Program
                0x0000000000000000       0x8c build/cubemx_stm32f411/Drivers/STM32F4xx_HAL_Driver/Src/stm32f4xx_hal_flash.o
 .text.HAL_FLASH_OB_Launch
                0x0000000000000000       0x18 build/cubemx_stm32f411/Drivers/STM32F4xx_HAL_Driver/Src/stm32f4xx_hal_flash.o
 .bss.pFlash    0x0000000000000000       0x20 build/cubemx_stm32f411/Drivers/STM32F4xx_HAL_Driver/Src/stm32f4xx_hal_flash.o
 .debug_info    0x0000000000000000      0x76b build/cubemx_stm32f411/Drivers/STM32F4xx_HAL_Driver/Src/stm32f4xx_hal_flash.o
 .debug_abbrev  0x0000000000000000      0x303 build/cubemx_stm32f411/Drivers/STM32F4xx_HAL_Driver/Src/stm32f4xx_hal_flash.o
 .debug_loc     0x0000000000000000      0x323 build/cubemx_stm32f411/Drivers/STM32F4xx_HAL_Driver/Src/stm32f4xx_hal_flash.o
 .debug_aranges
                0x0000000000000000       0x90 build/cubemx_stm32f411/Drivers/STM32F4xx_HAL_Driver/Src/stm32f4xx_hal_flash.o
 .debug_ranges  0x0000000000000000       0xb0 build/cubemx_stm32f411/Drivers/STM32F4xx_HAL_Driver/Src/stm32f4xx_hal_flash.o
 .debug_line    0x0000000000000000      0x775 build/cubemx_stm32f411/Drivers/STM32F4xx_HAL_Driver/Src/stm32f4xx_hal_flash.o
 .debug_str     0x0000000000000000      0x55a build/cubemx_stm32f411/Drivers/STM32F4xx_HAL_Driver/Src/stm32f4xx_hal_flash.o
 .comment       0x0000000000000000       0x4e build/cubemx_stm32f411/Drivers/STM32F4xx_HAL_Driver/Src/stm32f4xx_hal_flash.o
 .debug_frame   0x0000000000000000      0x154 build/cubemx_stm32f411/Drivers/STM32F4xx_HAL_Driver/Src/stm32f4xx_hal_flash.o
 .ARM.attributes
                0x0000000000000000       0x34 build/cubemx_stm32f411/Drivers/STM32F4xx_HAL_Driver/Src/stm32f4xx_hal_flash.o
 .text          0x0000000000000000        0x0 build/cubemx_stm32f411/Drivers/STM32F4xx_HAL_Driver/Src/stm32f4xx_hal_flash_ex.o
 .data          0x0000000000000000        0x0 build/cubemx_stm32f411/Drivers/STM32F4xx_HAL_Driver/Src/stm32f4xx_hal_flash_ex.o
 .bss           0x0000000000000000        0x0 build/cubemx_stm32f411/Drivers/STM32F4xx_HAL_Driver/Src/stm32f4xx_hal_flash_ex.o
 .text.FLASH_MassErase.constprop.0
                0x0000000000000000       0x24 build/cubemx_stm32f411/Drivers/STM32F4xx_HAL_Driver/Src/stm32f4xx_hal_flash_ex.o
 .text.HAL_FLASHEx_OBProgram
                0x0000000000000000       0xb0 build/cubemx_stm32f411/Drivers/STM32F4xx_HAL_Driver/Src/stm32f4xx_hal_flash_ex.o
 .text.HAL_FLASHEx_OBGetConfig
                0x0000000000000000       0x34 build/cubemx_stm32f411/Drivers/STM32F4xx_HAL_Driver/Src/stm32f4xx_hal_flash_ex.o
 .text.HAL_FLASHEx_AdvOBProgram
                0x0000000000000000       0x44 build/cubemx_stm32f411/Drivers/STM32F4xx_HAL_Driver/Src/stm32f4xx_hal_flash_ex.o
 .text.HAL_FLASHEx_AdvOBGetConfig
                0x0000000000000000        0xc build/cubemx_stm32f411/Drivers/STM32F4xx_HAL_Driver/Src/stm32f4xx_hal_flash_ex.o
 .text.HAL_FLASHEx_OB_SelectPCROP
                0x0000000000000000       0x14 build/cubemx_stm32f411/Drivers/STM32F4xx_HAL_Driver/Src/stm32f4xx_hal_flash_ex.o
 .text.HAL_FLASHEx_OB_DeSelectPCROP
                0x0000000000000000       0x14 build/cubemx_stm32f411/Drivers/STM32F4xx_HAL_Driver/Src/stm32f4xx_hal_flash_ex.o
 .text.FLASH_Erase_Sector
                0x0000000000000000       0x4c build/cubemx_stm32f411/Drivers/STM32F4xx_HAL_Driver/Src/stm32f4xx_hal_flash_ex.o
 .text.HAL_FLASHEx_Erase_IT
                0x0000000000000000       0x5c build/cubemx_stm32f411/Drivers/STM32F4xx_HAL_Driver/Src/stm32f4xx_hal_flash_ex.o
 .text.FLASH_FlushCaches
                0x0000000000000000       0x58 build/cubemx_stm32f411/Drivers/STM32F4xx_HAL_Driver/Src/stm32f4xx_hal_flash_ex.o
 .text.HAL_FLASHEx_Erase
                0x0000000000000000       0xa0 build/cubemx_stm32f411/Drivers/STM32F4xx_HAL_Driver/Src/stm32f4xx_hal_flash_ex.o
 .debug_info    0x0000000000000000      0xae8 build/cubemx_stm32f411/Drivers/STM32F4xx_HAL_Driver/Src/stm32f4xx_hal_flash_ex.o
 .debug_abbrev  0x0000000000000000      0x2fa build/cubemx_stm32f411/Drivers/STM32F4xx_HAL_Driver/Src/stm32f4xx_hal_flash_ex.o
 .debug_loc     0x0000000000000000      0x5d5 build/cubemx_stm32f411/Drivers/STM32F4xx_HAL_Driver/Src/stm32f4xx_hal_flash_ex.o
 .debug_aranges
                0x0000000000000000       0x70 build/cubemx_stm32f411/Drivers/STM32F4xx_HAL_Driver/Src/stm32f4xx_hal_flash_ex.o
 .debug_ranges  0x0000000000000000       0xf8 build/cubemx_stm32f411/Drivers/STM32F4xx_HAL_Driver/Src/stm32f4xx_hal_flash_ex.o
 .debug_line    0x0000000000000000      0x78d build/cubemx_stm32f411/Drivers/STM32F4xx_HAL_Driver/Src/stm32f4xx_hal_flash_ex.o
 .debug_str     0x0000000000000000      0x67d build/cubemx_stm32f411/Drivers/STM32F4xx_HAL_Driver/Src/stm32f4xx_hal_flash_ex.o
 .comment       0x0000000000000000       0x4e build/cubemx_stm32f411/Drivers/STM32F4xx_HAL_Driver/Src/stm32f4xx_hal_flash_ex.o
 .debug_frame   0x0000000000000000       0xf0 build/cubemx_stm32f411/Drivers/STM32F4xx_HAL_Driver/Src/stm32f4xx_hal_flash_ex.o
 .ARM.attributes
                0x0000000000000000       0x34 build/cubemx_stm32f411/Drivers/STM32F4xx_HAL_Driver/Src/stm32f4xx_hal_flash_ex.o
 .text          0x0000000000000000        0x0 build/cubemx_stm32f411/Drivers/STM32F4xx_HAL_Driver/Src/stm32f4xx_hal_pwr.o
 .data          0x0000000000000000        0x0 build/cubemx_stm32f411/Drivers/STM32F4xx_HAL_Driver/Src/stm32f4xx_hal_pwr.o
 .bss           0x0000000000000000        0x0 build/cubemx_stm32f411/Drivers/STM32F4xx_HAL_Driver/Src/stm32f4xx_hal_pwr.o
 .text.HAL_PWR_DeInit
                0x0000000000000000       0x18 build/cubemx_stm32f411/Drivers/STM32F4xx_HAL_Driver/Src/stm32f4xx_hal_pwr.o
 .text.HAL_PWR_EnableBkUpAccess
                0x0000000000000000       0x1c build/cubemx_stm32f411/Drivers/STM32F4xx_HAL_Driver/Src/stm32f4xx_hal_pwr.o
 .text.HAL_PWR_DisableBkUpAccess
                0x0000000000000000       0x1c build/cubemx_stm32f411/Drivers/STM32F4xx_HAL_Driver/Src/stm32f4xx_hal_pwr.o
 .text.HAL_PWR_ConfigPVD
                0x0000000000000000       0x70 build/cubemx_stm32f411/Drivers/STM32F4xx_HAL_Driver/Src/stm32f4xx_hal_pwr.o
 .text.HAL_PWR_EnablePVD
                0x0000000000000000        0xc build/cubemx_stm32f411/Drivers/STM32F4xx_HAL_Driver/Src/stm32f4xx_hal_pwr.o
 .text.HAL_PWR_DisablePVD
                0x0000000000000000        0xc build/cubemx_stm32f411/Drivers/STM32F4xx_HAL_Driver/Src/stm32f4xx_hal_pwr.o
 .text.HAL_PWR_EnableWakeUpPin
                0x0000000000000000       0x10 build/cubemx_stm32f411/Drivers/STM32F4xx_HAL_Driver/Src/stm32f4xx_hal_pwr.o
 .text.HAL_PWR_DisableWakeUpPin
                0x0000000000000000       0x10 build/cubemx_stm32f411/Drivers/STM32F4xx_HAL_Driver/Src/stm32f4xx_hal_pwr.o
 .text.HAL_PWR_EnterSLEEPMode
                0x0000000000000000       0x20 build/cubemx_stm32f411/Drivers/STM32F4xx_HAL_Driver/Src/stm32f4xx_hal_pwr.o
 .text.HAL_PWR_EnterSTOPMode
                0x0000000000000000       0x38 build/cubemx_stm32f411/Drivers/STM32F4xx_HAL_Driver/Src/stm32f4xx_hal_pwr.o
 .text.HAL_PWR_EnterSTANDBYMode
                0x0000000000000000       0x20 build/cubemx_stm32f411/Drivers/STM32F4xx_HAL_Driver/Src/stm32f4xx_hal_pwr.o
 .text.HAL_PWR_PVDCallback
                0x0000000000000000        0x2 build/cubemx_stm32f411/Drivers/STM32F4xx_HAL_Driver/Src/stm32f4xx_hal_pwr.o
 .text.HAL_PWR_PVD_IRQHandler
                0x0000000000000000       0x1c build/cubemx_stm32f411/Drivers/STM32F4xx_HAL_Driver/Src/stm32f4xx_hal_pwr.o
 .text.HAL_PWR_EnableSleepOnExit
                0x0000000000000000       0x10 build/cubemx_stm32f411/Drivers/STM32F4xx_HAL_Driver/Src/stm32f4xx_hal_pwr.o
 .text.HAL_PWR_DisableSleepOnExit
                0x0000000000000000       0x10 build/cubemx_stm32f411/Drivers/STM32F4xx_HAL_Driver/Src/stm32f4xx_hal_pwr.o
 .text.HAL_PWR_EnableSEVOnPend
                0x0000000000000000       0x10 build/cubemx_stm32f411/Drivers/STM32F4xx_HAL_Driver/Src/stm32f4xx_hal_pwr.o
 .text.HAL_PWR_DisableSEVOnPend
                0x0000000000000000       0x10 build/cubemx_stm32f411/Drivers/STM32F4xx_HAL_Driver/Src/stm32f4xx_hal_pwr.o
 .debug_info    0x0000000000000000      0x765 build/cubemx_stm32f411/Drivers/STM32F4xx_HAL_Driver/Src/stm32f4xx_hal_pwr.o
 .debug_abbrev  0x0000000000000000      0x1a5 build/cubemx_stm32f411/Drivers/STM32F4xx_HAL_Driver/Src/stm32f4xx_hal_pwr.o
 .debug_loc     0x0000000000000000       0x94 build/cubemx_stm32f411/Drivers/STM32F4xx_HAL_Driver/Src/stm32f4xx_hal_pwr.o
 .debug_aranges
                0x0000000000000000       0xa0 build/cubemx_stm32f411/Drivers/STM32F4xx_HAL_Driver/Src/stm32f4xx_hal_pwr.o
 .debug_ranges  0x0000000000000000       0x90 build/cubemx_stm32f411/Drivers/STM32F4xx_HAL_Driver/Src/stm32f4xx_hal_pwr.o
 .debug_line    0x0000000000000000      0x401 build/cubemx_stm32f411/Drivers/STM32F4xx_HAL_Driver/Src/stm32f4xx_hal_pwr.o
 .debug_str     0x0000000000000000      0x563 build/cubemx_stm32f411/Drivers/STM32F4xx_HAL_Driver/Src/stm32f4xx_hal_pwr.o
 .comment       0x0000000000000000       0x4e build/cubemx_stm32f411/Drivers/STM32F4xx_HAL_Driver/Src/stm32f4xx_hal_pwr.o
 .debug_frame   0x0000000000000000      0x138 build/cubemx_stm32f411/Drivers/STM32F4xx_HAL_Driver/Src/stm32f4xx_hal_pwr.o
 .ARM.attributes
                0x0000000000000000       0x34 build/cubemx_stm32f411/Drivers/STM32F4xx_HAL_Driver/Src/stm32f4xx_hal_pwr.o
 .text          0x0000000000000000        0x0 build/cubemx_stm32f411/Drivers/STM32F4xx_HAL_Driver/Src/stm32f4xx_hal_pwr_ex.o
 .data          0x0000000000000000        0x0 build/cubemx_stm32f411/Drivers/STM32F4xx_HAL_Driver/Src/stm32f4xx_hal_pwr_ex.o
 .bss           0x0000000000000000        0x0 build/cubemx_stm32f411/Drivers/STM32F4xx_HAL_Driver/Src/stm32f4xx_hal_pwr_ex.o
 .text.HAL_PWREx_EnableBkUpReg
                0x0000000000000000       0x34 build/cubemx_stm32f411/Drivers/STM32F4xx_HAL_Driver/Src/stm32f4xx_hal_pwr_ex.o
 .text.HAL_PWREx_DisableBkUpReg
                0x0000000000000000       0x38 build/cubemx_stm32f411/Drivers/STM32F4xx_HAL_Driver/Src/stm32f4xx_hal_pwr_ex.o
 .text.HAL_PWREx_EnableFlashPowerDown
                0x0000000000000000        0xc build/cubemx_stm32f411/Drivers/STM32F4xx_HAL_Driver/Src/stm32f4xx_hal_pwr_ex.o
 .text.HAL_PWREx_DisableFlashPowerDown
                0x0000000000000000        0xc build/cubemx_stm32f411/Drivers/STM32F4xx_HAL_Driver/Src/stm32f4xx_hal_pwr_ex.o
 .text.HAL_PWREx_GetVoltageRange
                0x0000000000000000       0x10 build/cubemx_stm32f411/Drivers/STM32F4xx_HAL_Driver/Src/stm32f4xx_hal_pwr_ex.o
 .text.HAL_PWREx_ControlVoltageScaling
                0x0000000000000000       0xb0 build/cubemx_stm32f411/Drivers/STM32F4xx_HAL_Driver/Src/stm32f4xx_hal_pwr_ex.o
 .text.HAL_PWREx_EnableMainRegulatorLowVoltage
                0x0000000000000000        0xc build/cubemx_stm32f411/Drivers/STM32F4xx_HAL_Driver/Src/stm32f4xx_hal_pwr_ex.o
 .text.HAL_PWREx_DisableMainRegulatorLowVoltage
                0x0000000000000000        0xc build/cubemx_stm32f411/Drivers/STM32F4xx_HAL_Driver/Src/stm32f4xx_hal_pwr_ex.o
 .text.HAL_PWREx_EnableLowRegulatorLowVoltage
                0x0000000000000000        0xc build/cubemx_stm32f411/Drivers/STM32F4xx_HAL_Driver/Src/stm32f4xx_hal_pwr_ex.o
 .text.HAL_PWREx_DisableLowRegulatorLowVoltage
                0x0000000000000000        0xc build/cubemx_stm32f411/Drivers/STM32F4xx_HAL_Driver/Src/stm32f4xx_hal_pwr_ex.o
 .debug_info    0x0000000000000000      0x4f8 build/cubemx_stm32f411/Drivers/STM32F4xx_HAL_Driver/Src/stm32f4xx_hal_pwr_ex.o
 .debug_abbrev  0x0000000000000000      0x1b7 build/cubemx_stm32f411/Drivers/STM32F4xx_HAL_Driver/Src/stm32f4xx_hal_pwr_ex.o
 .debug_loc     0x0000000000000000      0x155 build/cubemx_stm32f411/Drivers/STM32F4xx_HAL_Driver/Src/stm32f4xx_hal_pwr_ex.o
 .debug_aranges
                0x0000000000000000       0x68 build/cubemx_stm32f411/Drivers/STM32F4xx_HAL_Driver/Src/stm32f4xx_hal_pwr_ex.o
 .debug_ranges  0x0000000000000000       0x88 build/cubemx_stm32f411/Drivers/STM32F4xx_HAL_Driver/Src/stm32f4xx_hal_pwr_ex.o
 .debug_line    0x0000000000000000      0x3cf build/cubemx_stm32f411/Drivers/STM32F4xx_HAL_Driver/Src/stm32f4xx_hal_pwr_ex.o
 .debug_str     0x0000000000000000      0x4c6 build/cubemx_stm32f411/Drivers/STM32F4xx_HAL_Driver/Src/stm32f4xx_hal_pwr_ex.o
 .comment       0x0000000000000000       0x4e build/cubemx_stm32f411/Drivers/STM32F4xx_HAL_Driver/Src/stm32f4xx_hal_pwr_ex.o
 .debug_frame   0x0000000000000000       0xdc build/cubemx_stm32f411/Drivers/STM32F4xx_HAL_Driver/Src/stm32f4xx_hal_pwr_ex.o
 .ARM.attributes
                0x0000000000000000       0x34 build/cubemx_stm32f411/Drivers/STM32F4xx_HAL_Driver/Src/stm32f4xx_hal_pwr_ex.o
 .text          0x0000000000000000        0x0 build/version.o
 .data          0x0000000000000000        0x0 build/version.o
 .bss           0x0000000000000000        0x0 build/version.o
 .rodata.VersionBuildDate
                0x0000000000000000        0x8 build/version.o
 .text          0x0000000000000000      0x254 /usr/local/bin/../lib/gcc/arm-none-eabi/10.2.1/thumb/v7e-m+fp/hard/libgcc.a(_arm_muldf3.o)
 .data          0x0000000000000000        0x0 /usr/local/bin/../lib/gcc/arm-none-eabi/10.2.1/thumb/v7e-m+fp/hard/libgcc.a(_arm_muldf3.o)
 .bss           0x0000000000000000        0x0 /usr/local/bin/../lib/gcc/arm-none-eabi/10.2.1/thumb/v7e-m+fp/hard/libgcc.a(_arm_muldf3.o)
 .debug_frame   0x0000000000000000       0x30 /usr/local/bin/../lib/gcc/arm-none-eabi/10.2.1/thumb/v7e-m+fp/hard/libgcc.a(_arm_muldf3.o)
 .ARM.attributes
                0x0000000000000000       0x1e /usr/local/bin/../lib/gcc/arm-none-eabi/10.2.1/thumb/v7e-m+fp/hard/libgcc.a(_arm_muldf3.o)
 .data          0x0000000000000000        0x0 /usr/local/bin/../lib/gcc/arm-none-eabi/10.2.1/thumb/v7e-m+fp/hard/libgcc.a(_arm_addsubdf3.o)
 .bss           0x0000000000000000        0x0 /usr/local/bin/../lib/gcc/arm-none-eabi/10.2.1/thumb/v7e-m+fp/hard/libgcc.a(_arm_addsubdf3.o)
 .data          0x0000000000000000        0x0 /usr/local/bin/../lib/gcc/arm-none-eabi/10.2.1/thumb/v7e-m+fp/hard/libgcc.a(_arm_fixdfsi.o)
 .bss           0x0000000000000000        0x0 /usr/local/bin/../lib/gcc/arm-none-eabi/10.2.1/thumb/v7e-m+fp/hard/libgcc.a(_arm_fixdfsi.o)
 .text          0x0000000000000000       0xa0 /usr/local/bin/../lib/gcc/arm-none-eabi/10.2.1/thumb/v7e-m+fp/hard/libgcc.a(_aeabi_ldivmod.o)
 .data          0x0000000000000000        0x0 /usr/local/bin/../lib/gcc/arm-none-eabi/10.2.1/thumb/v7e-m+fp/hard/libgcc.a(_aeabi_ldivmod.o)
 .bss           0x0000000000000000        0x0 /usr/local/bin/../lib/gcc/arm-none-eabi/10.2.1/thumb/v7e-m+fp/hard/libgcc.a(_aeabi_ldivmod.o)
 .debug_frame   0x0000000000000000       0x44 /usr/local/bin/../lib/gcc/arm-none-eabi/10.2.1/thumb/v7e-m+fp/hard/libgcc.a(_aeabi_ldivmod.o)
 .ARM.attributes
                0x0000000000000000       0x1e /usr/local/bin/../lib/gcc/arm-none-eabi/10.2.1/thumb/v7e-m+fp/hard/libgcc.a(_aeabi_ldivmod.o)
 .data          0x0000000000000000        0x0 /usr/local/bin/../lib/gcc/arm-none-eabi/10.2.1/thumb/v7e-m+fp/hard/libgcc.a(_aeabi_uldivmod.o)
 .bss           0x0000000000000000        0x0 /usr/local/bin/../lib/gcc/arm-none-eabi/10.2.1/thumb/v7e-m+fp/hard/libgcc.a(_aeabi_uldivmod.o)
 .data          0x0000000000000000        0x0 /usr/local/bin/../lib/gcc/arm-none-eabi/10.2.1/thumb/v7e-m+fp/hard/libgcc.a(_udivmoddi4.o)
 .bss           0x0000000000000000        0x0 /usr/local/bin/../lib/gcc/arm-none-eabi/10.2.1/thumb/v7e-m+fp/hard/libgcc.a(_udivmoddi4.o)
 .ARM.extab     0x0000000000000000        0x0 /usr/local/bin/../lib/gcc/arm-none-eabi/10.2.1/thumb/v7e-m+fp/hard/libgcc.a(_udivmoddi4.o)
 .data          0x0000000000000000        0x0 /usr/local/bin/../lib/gcc/arm-none-eabi/10.2.1/thumb/v7e-m+fp/hard/libgcc.a(_dvmd_tls.o)
 .bss           0x0000000000000000        0x0 /usr/local/bin/../lib/gcc/arm-none-eabi/10.2.1/thumb/v7e-m+fp/hard/libgcc.a(_dvmd_tls.o)
 .text          0x0000000000000000        0x0 /usr/local/bin/../lib/gcc/arm-none-eabi/10.2.1/../../../../arm-none-eabi/lib/thumb/v7e-m+fp/hard/libg_nano.a(lib_a-ctype_.o)
 .data          0x0000000000000000        0x0 /usr/local/bin/../lib/gcc/arm-none-eabi/10.2.1/../../../../arm-none-eabi/lib/thumb/v7e-m+fp/hard/libg_nano.a(lib_a-ctype_.o)
 .bss           0x0000000000000000        0x0 /usr/local/bin/../lib/gcc/arm-none-eabi/10.2.1/../../../../arm-none-eabi/lib/thumb/v7e-m+fp/hard/libg_nano.a(lib_a-ctype_.o)
 .text          0x0000000000000000        0x0 /usr/local/bin/../lib/gcc/arm-none-eabi/10.2.1/../../../../arm-none-eabi/lib/thumb/v7e-m+fp/hard/libg_nano.a(lib_a-errno.o)
 .data          0x0000000000000000        0x0 /usr/local/bin/../lib/gcc/arm-none-eabi/10.2.1/../../../../arm-none-eabi/lib/thumb/v7e-m+fp/hard/libg_nano.a(lib_a-errno.o)
 .bss           0x0000000000000000        0x0 /usr/local/bin/../lib/gcc/arm-none-eabi/10.2.1/../../../../arm-none-eabi/lib/thumb/v7e-m+fp/hard/libg_nano.a(lib_a-errno.o)
 .text          0x0000000000000000        0x0 /usr/local/bin/../lib/gcc/arm-none-eabi/10.2.1/../../../../arm-none-eabi/lib/thumb/v7e-m+fp/hard/libg_nano.a(lib_a-exit.o)
 .data          0x0000000000000000        0x0 /usr/local/bin/../lib/gcc/arm-none-eabi/10.2.1/../../../../arm-none-eabi/lib/thumb/v7e-m+fp/hard/libg_nano.a(lib_a-exit.o)
 .bss           0x0000000000000000        0x0 /usr/local/bin/../lib/gcc/arm-none-eabi/10.2.1/../../../../arm-none-eabi/lib/thumb/v7e-m+fp/hard/libg_nano.a(lib_a-exit.o)
 .text.exit     0x0000000000000000       0x28 /usr/local/bin/../lib/gcc/arm-none-eabi/10.2.1/../../../../arm-none-eabi/lib/thumb/v7e-m+fp/hard/libg_nano.a(lib_a-exit.o)
 .debug_frame   0x0000000000000000       0x28 /usr/local/bin/../lib/gcc/arm-none-eabi/10.2.1/../../../../arm-none-eabi/lib/thumb/v7e-m+fp/hard/libg_nano.a(lib_a-exit.o)
 .ARM.attributes
                0x0000000000000000       0x34 /usr/local/bin/../lib/gcc/arm-none-eabi/10.2.1/../../../../arm-none-eabi/lib/thumb/v7e-m+fp/hard/libg_nano.a(lib_a-exit.o)
 .text          0x0000000000000000        0x0 /usr/local/bin/../lib/gcc/arm-none-eabi/10.2.1/../../../../arm-none-eabi/lib/thumb/v7e-m+fp/hard/libg_nano.a(lib_a-fflush.o)
 .data          0x0000000000000000        0x0 /usr/local/bin/../lib/gcc/arm-none-eabi/10.2.1/../../../../arm-none-eabi/lib/thumb/v7e-m+fp/hard/libg_nano.a(lib_a-fflush.o)
 .bss           0x0000000000000000        0x0 /usr/local/bin/../lib/gcc/arm-none-eabi/10.2.1/../../../../arm-none-eabi/lib/thumb/v7e-m+fp/hard/libg_nano.a(lib_a-fflush.o)
 .text          0x0000000000000000        0x0 /usr/local/bin/../lib/gcc/arm-none-eabi/10.2.1/../../../../arm-none-eabi/lib/thumb/v7e-m+fp/hard/libg_nano.a(lib_a-findfp.o)
 .data          0x0000000000000000        0x0 /usr/local/bin/../lib/gcc/arm-none-eabi/10.2.1/../../../../arm-none-eabi/lib/thumb/v7e-m+fp/hard/libg_nano.a(lib_a-findfp.o)
 .bss           0x0000000000000000        0x0 /usr/local/bin/../lib/gcc/arm-none-eabi/10.2.1/../../../../arm-none-eabi/lib/thumb/v7e-m+fp/hard/libg_nano.a(lib_a-findfp.o)
 .text.__fp_lock
                0x0000000000000000       0x18 /usr/local/bin/../lib/gcc/arm-none-eabi/10.2.1/../../../../arm-none-eabi/lib/thumb/v7e-m+fp/hard/libg_nano.a(lib_a-findfp.o)
 .text.__fp_unlock
                0x0000000000000000       0x18 /usr/local/bin/../lib/gcc/arm-none-eabi/10.2.1/../../../../arm-none-eabi/lib/thumb/v7e-m+fp/hard/libg_nano.a(lib_a-findfp.o)
 .text._cleanup
                0x0000000000000000        0xc /usr/local/bin/../lib/gcc/arm-none-eabi/10.2.1/../../../../arm-none-eabi/lib/thumb/v7e-m+fp/hard/libg_nano.a(lib_a-findfp.o)
 .text.__fp_lock_all
                0x0000000000000000       0x1c /usr/local/bin/../lib/gcc/arm-none-eabi/10.2.1/../../../../arm-none-eabi/lib/thumb/v7e-m+fp/hard/libg_nano.a(lib_a-findfp.o)
 .text.__fp_unlock_all
                0x0000000000000000       0x1c /usr/local/bin/../lib/gcc/arm-none-eabi/10.2.1/../../../../arm-none-eabi/lib/thumb/v7e-m+fp/hard/libg_nano.a(lib_a-findfp.o)
 .text          0x0000000000000000        0x0 /usr/local/bin/../lib/gcc/arm-none-eabi/10.2.1/../../../../arm-none-eabi/lib/thumb/v7e-m+fp/hard/libg_nano.a(lib_a-fwalk.o)
 .data          0x0000000000000000        0x0 /usr/local/bin/../lib/gcc/arm-none-eabi/10.2.1/../../../../arm-none-eabi/lib/thumb/v7e-m+fp/hard/libg_nano.a(lib_a-fwalk.o)
 .bss           0x0000000000000000        0x0 /usr/local/bin/../lib/gcc/arm-none-eabi/10.2.1/../../../../arm-none-eabi/lib/thumb/v7e-m+fp/hard/libg_nano.a(lib_a-fwalk.o)
 .text._fwalk   0x0000000000000000       0x3a /usr/local/bin/../lib/gcc/arm-none-eabi/10.2.1/../../../../arm-none-eabi/lib/thumb/v7e-m+fp/hard/libg_nano.a(lib_a-fwalk.o)
 .text          0x0000000000000000        0x0 /usr/local/bin/../lib/gcc/arm-none-eabi/10.2.1/../../../../arm-none-eabi/lib/thumb/v7e-m+fp/hard/libg_nano.a(lib_a-impure.o)
 .data          0x0000000000000000        0x0 /usr/local/bin/../lib/gcc/arm-none-eabi/10.2.1/../../../../arm-none-eabi/lib/thumb/v7e-m+fp/hard/libg_nano.a(lib_a-impure.o)
 .bss           0x0000000000000000        0x0 /usr/local/bin/../lib/gcc/arm-none-eabi/10.2.1/../../../../arm-none-eabi/lib/thumb/v7e-m+fp/hard/libg_nano.a(lib_a-impure.o)
 .text          0x0000000000000000        0x0 /usr/local/bin/../lib/gcc/arm-none-eabi/10.2.1/../../../../arm-none-eabi/lib/thumb/v7e-m+fp/hard/libg_nano.a(lib_a-init.o)
 .data          0x0000000000000000        0x0 /usr/local/bin/../lib/gcc/arm-none-eabi/10.2.1/../../../../arm-none-eabi/lib/thumb/v7e-m+fp/hard/libg_nano.a(lib_a-init.o)
 .bss           0x0000000000000000        0x0 /usr/local/bin/../lib/gcc/arm-none-eabi/10.2.1/../../../../arm-none-eabi/lib/thumb/v7e-m+fp/hard/libg_nano.a(lib_a-init.o)
 .text          0x0000000000000000        0x0 /usr/local/bin/../lib/gcc/arm-none-eabi/10.2.1/../../../../arm-none-eabi/lib/thumb/v7e-m+fp/hard/libg_nano.a(lib_a-lock.o)
 .data          0x0000000000000000        0x0 /usr/local/bin/../lib/gcc/arm-none-eabi/10.2.1/../../../../arm-none-eabi/lib/thumb/v7e-m+fp/hard/libg_nano.a(lib_a-lock.o)
 .bss           0x0000000000000000        0x0 /usr/local/bin/../lib/gcc/arm-none-eabi/10.2.1/../../../../arm-none-eabi/lib/thumb/v7e-m+fp/hard/libg_nano.a(lib_a-lock.o)
 .text.__retarget_lock_init
                0x0000000000000000        0x2 /usr/local/bin/../lib/gcc/arm-none-eabi/10.2.1/../../../../arm-none-eabi/lib/thumb/v7e-m+fp/hard/libg_nano.a(lib_a-lock.o)
 .text.__retarget_lock_close
                0x0000000000000000        0x2 /usr/local/bin/../lib/gcc/arm-none-eabi/10.2.1/../../../../arm-none-eabi/lib/thumb/v7e-m+fp/hard/libg_nano.a(lib_a-lock.o)
 .text.__retarget_lock_close_recursive
                0x0000000000000000        0x2 /usr/local/bin/../lib/gcc/arm-none-eabi/10.2.1/../../../../arm-none-eabi/lib/thumb/v7e-m+fp/hard/libg_nano.a(lib_a-lock.o)
 .text.__retarget_lock_acquire
                0x0000000000000000        0x2 /usr/local/bin/../lib/gcc/arm-none-eabi/10.2.1/../../../../arm-none-eabi/lib/thumb/v7e-m+fp/hard/libg_nano.a(lib_a-lock.o)
 .text.__retarget_lock_try_acquire
                0x0000000000000000        0x4 /usr/local/bin/../lib/gcc/arm-none-eabi/10.2.1/../../../../arm-none-eabi/lib/thumb/v7e-m+fp/hard/libg_nano.a(lib_a-lock.o)
 .text.__retarget_lock_try_acquire_recursive
                0x0000000000000000        0x4 /usr/local/bin/../lib/gcc/arm-none-eabi/10.2.1/../../../../arm-none-eabi/lib/thumb/v7e-m+fp/hard/libg_nano.a(lib_a-lock.o)
 .text.__retarget_lock_release
                0x0000000000000000        0x2 /usr/local/bin/../lib/gcc/arm-none-eabi/10.2.1/../../../../arm-none-eabi/lib/thumb/v7e-m+fp/hard/libg_nano.a(lib_a-lock.o)
 .bss.__lock___arc4random_mutex
                0x0000000000000000        0x1 /usr/local/bin/../lib/gcc/arm-none-eabi/10.2.1/../../../../arm-none-eabi/lib/thumb/v7e-m+fp/hard/libg_nano.a(lib_a-lock.o)
 .bss.__lock___at_quick_exit_mutex
                0x0000000000000000        0x1 /usr/local/bin/../lib/gcc/arm-none-eabi/10.2.1/../../../../arm-none-eabi/lib/thumb/v7e-m+fp/hard/libg_nano.a(lib_a-lock.o)
 .bss.__lock___atexit_recursive_mutex
                0x0000000000000000        0x1 /usr/local/bin/../lib/gcc/arm-none-eabi/10.2.1/../../../../arm-none-eabi/lib/thumb/v7e-m+fp/hard/libg_nano.a(lib_a-lock.o)
 .bss.__lock___dd_hash_mutex
                0x0000000000000000        0x1 /usr/local/bin/../lib/gcc/arm-none-eabi/10.2.1/../../../../arm-none-eabi/lib/thumb/v7e-m+fp/hard/libg_nano.a(lib_a-lock.o)
 .bss.__lock___env_recursive_mutex
                0x0000000000000000        0x1 /usr/local/bin/../lib/gcc/arm-none-eabi/10.2.1/../../../../arm-none-eabi/lib/thumb/v7e-m+fp/hard/libg_nano.a(lib_a-lock.o)
 .bss.__lock___tz_mutex
                0x0000000000000000        0x1 /usr/local/bin/../lib/gcc/arm-none-eabi/10.2.1/../../../../arm-none-eabi/lib/thumb/v7e-m+fp/hard/libg_nano.a(lib_a-lock.o)
 .text          0x0000000000000000        0x0 /usr/local/bin/../lib/gcc/arm-none-eabi/10.2.1/../../../../arm-none-eabi/lib/thumb/v7e-m+fp/hard/libg_nano.a(lib_a-memset.o)
 .data          0x0000000000000000        0x0 /usr/local/bin/../lib/gcc/arm-none-eabi/10.2.1/../../../../arm-none-eabi/lib/thumb/v7e-m+fp/hard/libg_nano.a(lib_a-memset.o)
 .bss           0x0000000000000000        0x0 /usr/local/bin/../lib/gcc/arm-none-eabi/10.2.1/../../../../arm-none-eabi/lib/thumb/v7e-m+fp/hard/libg_nano.a(lib_a-memset.o)
 .text          0x0000000000000000        0x0 /usr/local/bin/../lib/gcc/arm-none-eabi/10.2.1/../../../../arm-none-eabi/lib/thumb/v7e-m+fp/hard/libg_nano.a(lib_a-nano-freer.o)
 .data          0x0000000000000000        0x0 /usr/local/bin/../lib/gcc/arm-none-eabi/10.2.1/../../../../arm-none-eabi/lib/thumb/v7e-m+fp/hard/libg_nano.a(lib_a-nano-freer.o)
 .bss           0x0000000000000000        0x0 /usr/local/bin/../lib/gcc/arm-none-eabi/10.2.1/../../../../arm-none-eabi/lib/thumb/v7e-m+fp/hard/libg_nano.a(lib_a-nano-freer.o)
 .text          0x0000000000000000        0x0 /usr/local/bin/../lib/gcc/arm-none-eabi/10.2.1/../../../../arm-none-eabi/lib/thumb/v7e-m+fp/hard/libg_nano.a(lib_a-nano-mallocr.o)
 .data          0x0000000000000000        0x0 /usr/local/bin/../lib/gcc/arm-none-eabi/10.2.1/../../../../arm-none-eabi/lib/thumb/v7e-m+fp/hard/libg_nano.a(lib_a-nano-mallocr.o)
 .bss           0x0000000000000000        0x0 /usr/local/bin/../lib/gcc/arm-none-eabi/10.2.1/../../../../arm-none-eabi/lib/thumb/v7e-m+fp/hard/libg_nano.a(lib_a-nano-mallocr.o)
 .text          0x0000000000000000        0x0 /usr/local/bin/../lib/gcc/arm-none-eabi/10.2.1/../../../../arm-none-eabi/lib/thumb/v7e-m+fp/hard/libg_nano.a(lib_a-nano-vfprintf_float.o)
 .data          0x0000000000000000        0x0 /usr/local/bin/../lib/gcc/arm-none-eabi/10.2.1/../../../../arm-none-eabi/lib/thumb/v7e-m+fp/hard/libg_nano.a(lib_a-nano-vfprintf_float.o)
 .bss           0x0000000000000000        0x0 /usr/local/bin/../lib/gcc/arm-none-eabi/10.2.1/../../../../arm-none-eabi/lib/thumb/v7e-m+fp/hard/libg_nano.a(lib_a-nano-vfprintf_float.o)
 .text          0x0000000000000000        0x0 /usr/local/bin/../lib/gcc/arm-none-eabi/10.2.1/../../../../arm-none-eabi/lib/thumb/v7e-m+fp/hard/libg_nano.a(lib_a-nano-vfprintf_i.o)
 .data          0x0000000000000000        0x0 /usr/local/bin/../lib/gcc/arm-none-eabi/10.2.1/../../../../arm-none-eabi/lib/thumb/v7e-m+fp/hard/libg_nano.a(lib_a-nano-vfprintf_i.o)
 .bss           0x0000000000000000        0x0 /usr/local/bin/../lib/gcc/arm-none-eabi/10.2.1/../../../../arm-none-eabi/lib/thumb/v7e-m+fp/hard/libg_nano.a(lib_a-nano-vfprintf_i.o)
 .text          0x0000000000000000        0x0 /usr/local/bin/../lib/gcc/arm-none-eabi/10.2.1/../../../../arm-none-eabi/lib/thumb/v7e-m+fp/hard/libg_nano.a(lib_a-printf.o)
 .data          0x0000000000000000        0x0 /usr/local/bin/../lib/gcc/arm-none-eabi/10.2.1/../../../../arm-none-eabi/lib/thumb/v7e-m+fp/hard/libg_nano.a(lib_a-printf.o)
 .bss           0x0000000000000000        0x0 /usr/local/bin/../lib/gcc/arm-none-eabi/10.2.1/../../../../arm-none-eabi/lib/thumb/v7e-m+fp/hard/libg_nano.a(lib_a-printf.o)
 .text._printf_r
                0x0000000000000000       0x28 /usr/local/bin/../lib/gcc/arm-none-eabi/10.2.1/../../../../arm-none-eabi/lib/thumb/v7e-m+fp/hard/libg_nano.a(lib_a-printf.o)
 .text          0x0000000000000000        0x0 /usr/local/bin/../lib/gcc/arm-none-eabi/10.2.1/../../../../arm-none-eabi/lib/thumb/v7e-m+fp/hard/libg_nano.a(lib_a-putchar.o)
 .data          0x0000000000000000        0x0 /usr/local/bin/../lib/gcc/arm-none-eabi/10.2.1/../../../../arm-none-eabi/lib/thumb/v7e-m+fp/hard/libg_nano.a(lib_a-putchar.o)
 .bss           0x0000000000000000        0x0 /usr/local/bin/../lib/gcc/arm-none-eabi/10.2.1/../../../../arm-none-eabi/lib/thumb/v7e-m+fp/hard/libg_nano.a(lib_a-putchar.o)
 .text._putchar_r
                0x0000000000000000       0x20 /usr/local/bin/../lib/gcc/arm-none-eabi/10.2.1/../../../../arm-none-eabi/lib/thumb/v7e-m+fp/hard/libg_nano.a(lib_a-putchar.o)
 .text          0x0000000000000000        0x0 /usr/local/bin/../lib/gcc/arm-none-eabi/10.2.1/../../../../arm-none-eabi/lib/thumb/v7e-m+fp/hard/libg_nano.a(lib_a-puts.o)
 .data          0x0000000000000000        0x0 /usr/local/bin/../lib/gcc/arm-none-eabi/10.2.1/../../../../arm-none-eabi/lib/thumb/v7e-m+fp/hard/libg_nano.a(lib_a-puts.o)
 .bss           0x0000000000000000        0x0 /usr/local/bin/../lib/gcc/arm-none-eabi/10.2.1/../../../../arm-none-eabi/lib/thumb/v7e-m+fp/hard/libg_nano.a(lib_a-puts.o)
 .text          0x0000000000000000        0x0 /usr/local/bin/../lib/gcc/arm-none-eabi/10.2.1/../../../../arm-none-eabi/lib/thumb/v7e-m+fp/hard/libg_nano.a(lib_a-setvbuf.o)
 .data          0x0000000000000000        0x0 /usr/local/bin/../lib/gcc/arm-none-eabi/10.2.1/../../../../arm-none-eabi/lib/thumb/v7e-m+fp/hard/libg_nano.a(lib_a-setvbuf.o)
 .bss           0x0000000000000000        0x0 /usr/local/bin/../lib/gcc/arm-none-eabi/10.2.1/../../../../arm-none-eabi/lib/thumb/v7e-m+fp/hard/libg_nano.a(lib_a-setvbuf.o)
 .text          0x0000000000000000        0x0 /usr/local/bin/../lib/gcc/arm-none-eabi/10.2.1/../../../../arm-none-eabi/lib/thumb/v7e-m+fp/hard/libg_nano.a(lib_a-stdio.o)
 .data          0x0000000000000000        0x0 /usr/local/bin/../lib/gcc/arm-none-eabi/10.2.1/../../../../arm-none-eabi/lib/thumb/v7e-m+fp/hard/libg_nano.a(lib_a-stdio.o)
 .bss           0x0000000000000000        0x0 /usr/local/bin/../lib/gcc/arm-none-eabi/10.2.1/../../../../arm-none-eabi/lib/thumb/v7e-m+fp/hard/libg_nano.a(lib_a-stdio.o)
 .text.__seofread
                0x0000000000000000        0x4 /usr/local/bin/../lib/gcc/arm-none-eabi/10.2.1/../../../../arm-none-eabi/lib/thumb/v7e-m+fp/hard/libg_nano.a(lib_a-stdio.o)
 .text          0x0000000000000000        0x0 /usr/local/bin/../lib/gcc/arm-none-eabi/10.2.1/../../../../arm-none-eabi/lib/thumb/v7e-m+fp/hard/libg_nano.a(lib_a-strcasecmp.o)
 .data          0x0000000000000000        0x0 /usr/local/bin/../lib/gcc/arm-none-eabi/10.2.1/../../../../arm-none-eabi/lib/thumb/v7e-m+fp/hard/libg_nano.a(lib_a-strcasecmp.o)
 .bss           0x0000000000000000        0x0 /usr/local/bin/../lib/gcc/arm-none-eabi/10.2.1/../../../../arm-none-eabi/lib/thumb/v7e-m+fp/hard/libg_nano.a(lib_a-strcasecmp.o)
 .text          0x0000000000000000        0x0 /usr/local/bin/../lib/gcc/arm-none-eabi/10.2.1/../../../../arm-none-eabi/lib/thumb/v7e-m+fp/hard/libg_nano.a(lib_a-strchr.o)
 .data          0x0000000000000000        0x0 /usr/local/bin/../lib/gcc/arm-none-eabi/10.2.1/../../../../arm-none-eabi/lib/thumb/v7e-m+fp/hard/libg_nano.a(lib_a-strchr.o)
 .bss           0x0000000000000000        0x0 /usr/local/bin/../lib/gcc/arm-none-eabi/10.2.1/../../../../arm-none-eabi/lib/thumb/v7e-m+fp/hard/libg_nano.a(lib_a-strchr.o)
 .text.strchr   0x0000000000000000       0x1a /usr/local/bin/../lib/gcc/arm-none-eabi/10.2.1/../../../../arm-none-eabi/lib/thumb/v7e-m+fp/hard/libg_nano.a(lib_a-strchr.o)
 .debug_frame   0x0000000000000000       0x20 /usr/local/bin/../lib/gcc/arm-none-eabi/10.2.1/../../../../arm-none-eabi/lib/thumb/v7e-m+fp/hard/libg_nano.a(lib_a-strchr.o)
 .ARM.attributes
                0x0000000000000000       0x34 /usr/local/bin/../lib/gcc/arm-none-eabi/10.2.1/../../../../arm-none-eabi/lib/thumb/v7e-m+fp/hard/libg_nano.a(lib_a-strchr.o)
 .text          0x0000000000000000        0x0 /usr/local/bin/../lib/gcc/arm-none-eabi/10.2.1/../../../../arm-none-eabi/lib/thumb/v7e-m+fp/hard/libg_nano.a(lib_a-strcpy.o)
 .data          0x0000000000000000        0x0 /usr/local/bin/../lib/gcc/arm-none-eabi/10.2.1/../../../../arm-none-eabi/lib/thumb/v7e-m+fp/hard/libg_nano.a(lib_a-strcpy.o)
 .bss           0x0000000000000000        0x0 /usr/local/bin/../lib/gcc/arm-none-eabi/10.2.1/../../../../arm-none-eabi/lib/thumb/v7e-m+fp/hard/libg_nano.a(lib_a-strcpy.o)
 .data          0x0000000000000000        0x0 /usr/local/bin/../lib/gcc/arm-none-eabi/10.2.1/../../../../arm-none-eabi/lib/thumb/v7e-m+fp/hard/libg_nano.a(lib_a-strlen.o)
 .bss           0x0000000000000000        0x0 /usr/local/bin/../lib/gcc/arm-none-eabi/10.2.1/../../../../arm-none-eabi/lib/thumb/v7e-m+fp/hard/libg_nano.a(lib_a-strlen.o)
 .text          0x0000000000000000        0x0 /usr/local/bin/../lib/gcc/arm-none-eabi/10.2.1/../../../../arm-none-eabi/lib/thumb/v7e-m+fp/hard/libg_nano.a(lib_a-strtod.o)
 .data          0x0000000000000000        0x0 /usr/local/bin/../lib/gcc/arm-none-eabi/10.2.1/../../../../arm-none-eabi/lib/thumb/v7e-m+fp/hard/libg_nano.a(lib_a-strtod.o)
 .bss           0x0000000000000000        0x0 /usr/local/bin/../lib/gcc/arm-none-eabi/10.2.1/../../../../arm-none-eabi/lib/thumb/v7e-m+fp/hard/libg_nano.a(lib_a-strtod.o)
 .text.sulp     0x0000000000000000       0x38 /usr/local/bin/../lib/gcc/arm-none-eabi/10.2.1/../../../../arm-none-eabi/lib/thumb/v7e-m+fp/hard/libg_nano.a(lib_a-strtod.o)
 .rodata._strtod_l.str1.1
                0x0000000000000000        0xd /usr/local/bin/../lib/gcc/arm-none-eabi/10.2.1/../../../../arm-none-eabi/lib/thumb/v7e-m+fp/hard/libg_nano.a(lib_a-strtod.o)
 .text._strtod_l
                0x0000000000000000      0xc0c /usr/local/bin/../lib/gcc/arm-none-eabi/10.2.1/../../../../arm-none-eabi/lib/thumb/v7e-m+fp/hard/libg_nano.a(lib_a-strtod.o)
 .text._strtod_r
                0x0000000000000000        0xc /usr/local/bin/../lib/gcc/arm-none-eabi/10.2.1/../../../../arm-none-eabi/lib/thumb/v7e-m+fp/hard/libg_nano.a(lib_a-strtod.o)
 .text.strtod_l
                0x0000000000000000       0x14 /usr/local/bin/../lib/gcc/arm-none-eabi/10.2.1/../../../../arm-none-eabi/lib/thumb/v7e-m+fp/hard/libg_nano.a(lib_a-strtod.o)
 .text.strtod   0x0000000000000000       0x18 /usr/local/bin/../lib/gcc/arm-none-eabi/10.2.1/../../../../arm-none-eabi/lib/thumb/v7e-m+fp/hard/libg_nano.a(lib_a-strtod.o)
 .text.strtof_l
                0x0000000000000000       0xb4 /usr/local/bin/../lib/gcc/arm-none-eabi/10.2.1/../../../../arm-none-eabi/lib/thumb/v7e-m+fp/hard/libg_nano.a(lib_a-strtod.o)
 .text.strtof   0x0000000000000000       0xb8 /usr/local/bin/../lib/gcc/arm-none-eabi/10.2.1/../../../../arm-none-eabi/lib/thumb/v7e-m+fp/hard/libg_nano.a(lib_a-strtod.o)
 .rodata.fpi.1  0x0000000000000000       0x14 /usr/local/bin/../lib/gcc/arm-none-eabi/10.2.1/../../../../arm-none-eabi/lib/thumb/v7e-m+fp/hard/libg_nano.a(lib_a-strtod.o)
 .rodata.fpinan.0
                0x0000000000000000       0x14 /usr/local/bin/../lib/gcc/arm-none-eabi/10.2.1/../../../../arm-none-eabi/lib/thumb/v7e-m+fp/hard/libg_nano.a(lib_a-strtod.o)
 .rodata.tinytens
                0x0000000000000000       0x28 /usr/local/bin/../lib/gcc/arm-none-eabi/10.2.1/../../../../arm-none-eabi/lib/thumb/v7e-m+fp/hard/libg_nano.a(lib_a-strtod.o)
 .debug_frame   0x0000000000000000      0x12c /usr/local/bin/../lib/gcc/arm-none-eabi/10.2.1/../../../../arm-none-eabi/lib/thumb/v7e-m+fp/hard/libg_nano.a(lib_a-strtod.o)
 .ARM.attributes
                0x0000000000000000       0x34 /usr/local/bin/../lib/gcc/arm-none-eabi/10.2.1/../../../../arm-none-eabi/lib/thumb/v7e-m+fp/hard/libg_nano.a(lib_a-strtod.o)
 .text          0x0000000000000000        0x0 /usr/local/bin/../lib/gcc/arm-none-eabi/10.2.1/../../../../arm-none-eabi/lib/thumb/v7e-m+fp/hard/libg_nano.a(lib_a-strtok.o)
 .data          0x0000000000000000        0x0 /usr/local/bin/../lib/gcc/arm-none-eabi/10.2.1/../../../../arm-none-eabi/lib/thumb/v7e-m+fp/hard/libg_nano.a(lib_a-strtok.o)
 .bss           0x0000000000000000        0x0 /usr/local/bin/../lib/gcc/arm-none-eabi/10.2.1/../../../../arm-none-eabi/lib/thumb/v7e-m+fp/hard/libg_nano.a(lib_a-strtok.o)
 .text          0x0000000000000000        0x0 /usr/local/bin/../lib/gcc/arm-none-eabi/10.2.1/../../../../arm-none-eabi/lib/thumb/v7e-m+fp/hard/libg_nano.a(lib_a-strtok_r.o)
 .data          0x0000000000000000        0x0 /usr/local/bin/../lib/gcc/arm-none-eabi/10.2.1/../../../../arm-none-eabi/lib/thumb/v7e-m+fp/hard/libg_nano.a(lib_a-strtok_r.o)
 .bss           0x0000000000000000        0x0 /usr/local/bin/../lib/gcc/arm-none-eabi/10.2.1/../../../../arm-none-eabi/lib/thumb/v7e-m+fp/hard/libg_nano.a(lib_a-strtok_r.o)
 .text.strtok_r
                0x0000000000000000        0x6 /usr/local/bin/../lib/gcc/arm-none-eabi/10.2.1/../../../../arm-none-eabi/lib/thumb/v7e-m+fp/hard/libg_nano.a(lib_a-strtok_r.o)
 .text          0x0000000000000000        0x0 /usr/local/bin/../lib/gcc/arm-none-eabi/10.2.1/../../../../arm-none-eabi/lib/thumb/v7e-m+fp/hard/libg_nano.a(lib_a-strtol.o)
 .data          0x0000000000000000        0x0 /usr/local/bin/../lib/gcc/arm-none-eabi/10.2.1/../../../../arm-none-eabi/lib/thumb/v7e-m+fp/hard/libg_nano.a(lib_a-strtol.o)
 .bss           0x0000000000000000        0x0 /usr/local/bin/../lib/gcc/arm-none-eabi/10.2.1/../../../../arm-none-eabi/lib/thumb/v7e-m+fp/hard/libg_nano.a(lib_a-strtol.o)
 .text._strtol_l.constprop.0
                0x0000000000000000      0x104 /usr/local/bin/../lib/gcc/arm-none-eabi/10.2.1/../../../../arm-none-eabi/lib/thumb/v7e-m+fp/hard/libg_nano.a(lib_a-strtol.o)
 .text._strtol_r
                0x0000000000000000        0x4 /usr/local/bin/../lib/gcc/arm-none-eabi/10.2.1/../../../../arm-none-eabi/lib/thumb/v7e-m+fp/hard/libg_nano.a(lib_a-strtol.o)
 .text.strtol_l
                0x0000000000000000       0x14 /usr/local/bin/../lib/gcc/arm-none-eabi/10.2.1/../../../../arm-none-eabi/lib/thumb/v7e-m+fp/hard/libg_nano.a(lib_a-strtol.o)
 .text.strtol   0x0000000000000000       0x14 /usr/local/bin/../lib/gcc/arm-none-eabi/10.2.1/../../../../arm-none-eabi/lib/thumb/v7e-m+fp/hard/libg_nano.a(lib_a-strtol.o)
 .debug_frame   0x0000000000000000       0x64 /usr/local/bin/../lib/gcc/arm-none-eabi/10.2.1/../../../../arm-none-eabi/lib/thumb/v7e-m+fp/hard/libg_nano.a(lib_a-strtol.o)
 .ARM.attributes
                0x0000000000000000       0x34 /usr/local/bin/../lib/gcc/arm-none-eabi/10.2.1/../../../../arm-none-eabi/lib/thumb/v7e-m+fp/hard/libg_nano.a(lib_a-strtol.o)
 .text          0x0000000000000000        0x0 /usr/local/bin/../lib/gcc/arm-none-eabi/10.2.1/../../../../arm-none-eabi/lib/thumb/v7e-m+fp/hard/libg_nano.a(lib_a-strtoul.o)
 .data          0x0000000000000000        0x0 /usr/local/bin/../lib/gcc/arm-none-eabi/10.2.1/../../../../arm-none-eabi/lib/thumb/v7e-m+fp/hard/libg_nano.a(lib_a-strtoul.o)
 .bss           0x0000000000000000        0x0 /usr/local/bin/../lib/gcc/arm-none-eabi/10.2.1/../../../../arm-none-eabi/lib/thumb/v7e-m+fp/hard/libg_nano.a(lib_a-strtoul.o)
 .text._strtoul_r
                0x0000000000000000        0x4 /usr/local/bin/../lib/gcc/arm-none-eabi/10.2.1/../../../../arm-none-eabi/lib/thumb/v7e-m+fp/hard/libg_nano.a(lib_a-strtoul.o)
 .text.strtoul_l
                0x0000000000000000       0x14 /usr/local/bin/../lib/gcc/arm-none-eabi/10.2.1/../../../../arm-none-eabi/lib/thumb/v7e-m+fp/hard/libg_nano.a(lib_a-strtoul.o)
 .text          0x0000000000000000        0x0 /usr/local/bin/../lib/gcc/arm-none-eabi/10.2.1/../../../../arm-none-eabi/lib/thumb/v7e-m+fp/hard/libg_nano.a(lib_a-vsnprintf.o)
 .data          0x0000000000000000        0x0 /usr/local/bin/../lib/gcc/arm-none-eabi/10.2.1/../../../../arm-none-eabi/lib/thumb/v7e-m+fp/hard/libg_nano.a(lib_a-vsnprintf.o)
 .bss           0x0000000000000000        0x0 /usr/local/bin/../lib/gcc/arm-none-eabi/10.2.1/../../../../arm-none-eabi/lib/thumb/v7e-m+fp/hard/libg_nano.a(lib_a-vsnprintf.o)
 .text          0x0000000000000000        0x0 /usr/local/bin/../lib/gcc/arm-none-eabi/10.2.1/../../../../arm-none-eabi/lib/thumb/v7e-m+fp/hard/libg_nano.a(lib_a-wbuf.o)
 .data          0x0000000000000000        0x0 /usr/local/bin/../lib/gcc/arm-none-eabi/10.2.1/../../../../arm-none-eabi/lib/thumb/v7e-m+fp/hard/libg_nano.a(lib_a-wbuf.o)
 .bss           0x0000000000000000        0x0 /usr/local/bin/../lib/gcc/arm-none-eabi/10.2.1/../../../../arm-none-eabi/lib/thumb/v7e-m+fp/hard/libg_nano.a(lib_a-wbuf.o)
 .text.__swbuf  0x0000000000000000       0x10 /usr/local/bin/../lib/gcc/arm-none-eabi/10.2.1/../../../../arm-none-eabi/lib/thumb/v7e-m+fp/hard/libg_nano.a(lib_a-wbuf.o)
 .text          0x0000000000000000        0x0 /usr/local/bin/../lib/gcc/arm-none-eabi/10.2.1/../../../../arm-none-eabi/lib/thumb/v7e-m+fp/hard/libg_nano.a(lib_a-wsetup.o)
 .data          0x0000000000000000        0x0 /usr/local/bin/../lib/gcc/arm-none-eabi/10.2.1/../../../../arm-none-eabi/lib/thumb/v7e-m+fp/hard/libg_nano.a(lib_a-wsetup.o)
 .bss           0x0000000000000000        0x0 /usr/local/bin/../lib/gcc/arm-none-eabi/10.2.1/../../../../arm-none-eabi/lib/thumb/v7e-m+fp/hard/libg_nano.a(lib_a-wsetup.o)
 .text          0x0000000000000000        0x0 /usr/local/bin/../lib/gcc/arm-none-eabi/10.2.1/../../../../arm-none-eabi/lib/thumb/v7e-m+fp/hard/libg_nano.a(lib_a-assert.o)
 .data          0x0000000000000000        0x0 /usr/local/bin/../lib/gcc/arm-none-eabi/10.2.1/../../../../arm-none-eabi/lib/thumb/v7e-m+fp/hard/libg_nano.a(lib_a-assert.o)
 .bss           0x0000000000000000        0x0 /usr/local/bin/../lib/gcc/arm-none-eabi/10.2.1/../../../../arm-none-eabi/lib/thumb/v7e-m+fp/hard/libg_nano.a(lib_a-assert.o)
 .text.__assert
                0x0000000000000000        0xa /usr/local/bin/../lib/gcc/arm-none-eabi/10.2.1/../../../../arm-none-eabi/lib/thumb/v7e-m+fp/hard/libg_nano.a(lib_a-assert.o)
 .text          0x0000000000000000        0x0 /usr/local/bin/../lib/gcc/arm-none-eabi/10.2.1/../../../../arm-none-eabi/lib/thumb/v7e-m+fp/hard/libg_nano.a(lib_a-dtoa.o)
 .data          0x0000000000000000        0x0 /usr/local/bin/../lib/gcc/arm-none-eabi/10.2.1/../../../../arm-none-eabi/lib/thumb/v7e-m+fp/hard/libg_nano.a(lib_a-dtoa.o)
 .bss           0x0000000000000000        0x0 /usr/local/bin/../lib/gcc/arm-none-eabi/10.2.1/../../../../arm-none-eabi/lib/thumb/v7e-m+fp/hard/libg_nano.a(lib_a-dtoa.o)
 .text          0x0000000000000000        0x0 /usr/local/bin/../lib/gcc/arm-none-eabi/10.2.1/../../../../arm-none-eabi/lib/thumb/v7e-m+fp/hard/libg_nano.a(lib_a-fprintf.o)
 .data          0x0000000000000000        0x0 /usr/local/bin/../lib/gcc/arm-none-eabi/10.2.1/../../../../arm-none-eabi/lib/thumb/v7e-m+fp/hard/libg_nano.a(lib_a-fprintf.o)
 .bss           0x0000000000000000        0x0 /usr/local/bin/../lib/gcc/arm-none-eabi/10.2.1/../../../../arm-none-eabi/lib/thumb/v7e-m+fp/hard/libg_nano.a(lib_a-fprintf.o)
 .text._fprintf_r
                0x0000000000000000       0x1a /usr/local/bin/../lib/gcc/arm-none-eabi/10.2.1/../../../../arm-none-eabi/lib/thumb/v7e-m+fp/hard/libg_nano.a(lib_a-fprintf.o)
 .text          0x0000000000000000        0x0 /usr/local/bin/../lib/gcc/arm-none-eabi/10.2.1/../../../../arm-none-eabi/lib/thumb/v7e-m+fp/hard/libg_nano.a(lib_a-gdtoa-gethex.o)
 .data          0x0000000000000000        0x0 /usr/local/bin/../lib/gcc/arm-none-eabi/10.2.1/../../../../arm-none-eabi/lib/thumb/v7e-m+fp/hard/libg_nano.a(lib_a-gdtoa-gethex.o)
 .bss           0x0000000000000000        0x0 /usr/local/bin/../lib/gcc/arm-none-eabi/10.2.1/../../../../arm-none-eabi/lib/thumb/v7e-m+fp/hard/libg_nano.a(lib_a-gdtoa-gethex.o)
 .text.rshift   0x0000000000000000       0xa4 /usr/local/bin/../lib/gcc/arm-none-eabi/10.2.1/../../../../arm-none-eabi/lib/thumb/v7e-m+fp/hard/libg_nano.a(lib_a-gdtoa-gethex.o)
 .text.__hexdig_fun
                0x0000000000000000       0x2a /usr/local/bin/../lib/gcc/arm-none-eabi/10.2.1/../../../../arm-none-eabi/lib/thumb/v7e-m+fp/hard/libg_nano.a(lib_a-gdtoa-gethex.o)
 .rodata.__gethex.str1.1
                0x0000000000000000       0x96 /usr/local/bin/../lib/gcc/arm-none-eabi/10.2.1/../../../../arm-none-eabi/lib/thumb/v7e-m+fp/hard/libg_nano.a(lib_a-gdtoa-gethex.o)
 .text.__gethex
                0x0000000000000000      0x48c /usr/local/bin/../lib/gcc/arm-none-eabi/10.2.1/../../../../arm-none-eabi/lib/thumb/v7e-m+fp/hard/libg_nano.a(lib_a-gdtoa-gethex.o)
 .debug_frame   0x0000000000000000       0x84 /usr/local/bin/../lib/gcc/arm-none-eabi/10.2.1/../../../../arm-none-eabi/lib/thumb/v7e-m+fp/hard/libg_nano.a(lib_a-gdtoa-gethex.o)
 .ARM.attributes
                0x0000000000000000       0x34 /usr/local/bin/../lib/gcc/arm-none-eabi/10.2.1/../../../../arm-none-eabi/lib/thumb/v7e-m+fp/hard/libg_nano.a(lib_a-gdtoa-gethex.o)
 .text          0x0000000000000000        0x0 /usr/local/bin/../lib/gcc/arm-none-eabi/10.2.1/../../../../arm-none-eabi/lib/thumb/v7e-m+fp/hard/libg_nano.a(lib_a-gdtoa-hexnan.o)
 .data          0x0000000000000000        0x0 /usr/local/bin/../lib/gcc/arm-none-eabi/10.2.1/../../../../arm-none-eabi/lib/thumb/v7e-m+fp/hard/libg_nano.a(lib_a-gdtoa-hexnan.o)
 .bss           0x0000000000000000        0x0 /usr/local/bin/../lib/gcc/arm-none-eabi/10.2.1/../../../../arm-none-eabi/lib/thumb/v7e-m+fp/hard/libg_nano.a(lib_a-gdtoa-hexnan.o)
 .text.L_shift  0x0000000000000000       0x24 /usr/local/bin/../lib/gcc/arm-none-eabi/10.2.1/../../../../arm-none-eabi/lib/thumb/v7e-m+fp/hard/libg_nano.a(lib_a-gdtoa-hexnan.o)
 .text.__match  0x0000000000000000       0x28 /usr/local/bin/../lib/gcc/arm-none-eabi/10.2.1/../../../../arm-none-eabi/lib/thumb/v7e-m+fp/hard/libg_nano.a(lib_a-gdtoa-hexnan.o)
 .text.__hexnan
                0x0000000000000000      0x138 /usr/local/bin/../lib/gcc/arm-none-eabi/10.2.1/../../../../arm-none-eabi/lib/thumb/v7e-m+fp/hard/libg_nano.a(lib_a-gdtoa-hexnan.o)
 .debug_frame   0x0000000000000000       0x74 /usr/local/bin/../lib/gcc/arm-none-eabi/10.2.1/../../../../arm-none-eabi/lib/thumb/v7e-m+fp/hard/libg_nano.a(lib_a-gdtoa-hexnan.o)
 .ARM.attributes
                0x0000000000000000       0x34 /usr/local/bin/../lib/gcc/arm-none-eabi/10.2.1/../../../../arm-none-eabi/lib/thumb/v7e-m+fp/hard/libg_nano.a(lib_a-gdtoa-hexnan.o)
 .text          0x0000000000000000        0x0 /usr/local/bin/../lib/gcc/arm-none-eabi/10.2.1/../../../../arm-none-eabi/lib/thumb/v7e-m+fp/hard/libg_nano.a(lib_a-lnumeric.o)
 .data          0x0000000000000000        0x0 /usr/local/bin/../lib/gcc/arm-none-eabi/10.2.1/../../../../arm-none-eabi/lib/thumb/v7e-m+fp/hard/libg_nano.a(lib_a-lnumeric.o)
 .bss           0x0000000000000000        0x0 /usr/local/bin/../lib/gcc/arm-none-eabi/10.2.1/../../../../arm-none-eabi/lib/thumb/v7e-m+fp/hard/libg_nano.a(lib_a-lnumeric.o)
 .text.__numeric_load_locale
                0x0000000000000000        0x4 /usr/local/bin/../lib/gcc/arm-none-eabi/10.2.1/../../../../arm-none-eabi/lib/thumb/v7e-m+fp/hard/libg_nano.a(lib_a-lnumeric.o)
 .rodata.str1.1
                0x0000000000000000        0x3 /usr/local/bin/../lib/gcc/arm-none-eabi/10.2.1/../../../../arm-none-eabi/lib/thumb/v7e-m+fp/hard/libg_nano.a(lib_a-lnumeric.o)
 .data.numempty
                0x0000000000000000        0x2 /usr/local/bin/../lib/gcc/arm-none-eabi/10.2.1/../../../../arm-none-eabi/lib/thumb/v7e-m+fp/hard/libg_nano.a(lib_a-lnumeric.o)
 .rodata._C_numeric_locale
                0x0000000000000000        0xc /usr/local/bin/../lib/gcc/arm-none-eabi/10.2.1/../../../../arm-none-eabi/lib/thumb/v7e-m+fp/hard/libg_nano.a(lib_a-lnumeric.o)
 .debug_frame   0x0000000000000000       0x20 /usr/local/bin/../lib/gcc/arm-none-eabi/10.2.1/../../../../arm-none-eabi/lib/thumb/v7e-m+fp/hard/libg_nano.a(lib_a-lnumeric.o)
 .ARM.attributes
                0x0000000000000000       0x34 /usr/local/bin/../lib/gcc/arm-none-eabi/10.2.1/../../../../arm-none-eabi/lib/thumb/v7e-m+fp/hard/libg_nano.a(lib_a-lnumeric.o)
 .text          0x0000000000000000        0x0 /usr/local/bin/../lib/gcc/arm-none-eabi/10.2.1/../../../../arm-none-eabi/lib/thumb/v7e-m+fp/hard/libg_nano.a(lib_a-locale.o)
 .data          0x0000000000000000        0x0 /usr/local/bin/../lib/gcc/arm-none-eabi/10.2.1/../../../../arm-none-eabi/lib/thumb/v7e-m+fp/hard/libg_nano.a(lib_a-locale.o)
 .bss           0x0000000000000000        0x0 /usr/local/bin/../lib/gcc/arm-none-eabi/10.2.1/../../../../arm-none-eabi/lib/thumb/v7e-m+fp/hard/libg_nano.a(lib_a-locale.o)
 .text._setlocale_r
                0x0000000000000000       0x40 /usr/local/bin/../lib/gcc/arm-none-eabi/10.2.1/../../../../arm-none-eabi/lib/thumb/v7e-m+fp/hard/libg_nano.a(lib_a-locale.o)
 .text.__locale_mb_cur_max
                0x0000000000000000        0xc /usr/local/bin/../lib/gcc/arm-none-eabi/10.2.1/../../../../arm-none-eabi/lib/thumb/v7e-m+fp/hard/libg_nano.a(lib_a-locale.o)
 .text.setlocale
                0x0000000000000000       0x10 /usr/local/bin/../lib/gcc/arm-none-eabi/10.2.1/../../../../arm-none-eabi/lib/thumb/v7e-m+fp/hard/libg_nano.a(lib_a-locale.o)
 .bss._PathLocale
                0x0000000000000000        0x4 /usr/local/bin/../lib/gcc/arm-none-eabi/10.2.1/../../../../arm-none-eabi/lib/thumb/v7e-m+fp/hard/libg_nano.a(lib_a-locale.o)
 .text          0x0000000000000000        0x0 /usr/local/bin/../lib/gcc/arm-none-eabi/10.2.1/../../../../arm-none-eabi/lib/thumb/v7e-m+fp/hard/libg_nano.a(lib_a-localeconv.o)
 .data          0x0000000000000000        0x0 /usr/local/bin/../lib/gcc/arm-none-eabi/10.2.1/../../../../arm-none-eabi/lib/thumb/v7e-m+fp/hard/libg_nano.a(lib_a-localeconv.o)
 .bss           0x0000000000000000        0x0 /usr/local/bin/../lib/gcc/arm-none-eabi/10.2.1/../../../../arm-none-eabi/lib/thumb/v7e-m+fp/hard/libg_nano.a(lib_a-localeconv.o)
 .text.__localeconv_l
                0x0000000000000000        0x4 /usr/local/bin/../lib/gcc/arm-none-eabi/10.2.1/../../../../arm-none-eabi/lib/thumb/v7e-m+fp/hard/libg_nano.a(lib_a-localeconv.o)
 .text.localeconv
                0x0000000000000000        0x8 /usr/local/bin/../lib/gcc/arm-none-eabi/10.2.1/../../../../arm-none-eabi/lib/thumb/v7e-m+fp/hard/libg_nano.a(lib_a-localeconv.o)
 .text          0x0000000000000000        0x0 /usr/local/bin/../lib/gcc/arm-none-eabi/10.2.1/../../../../arm-none-eabi/lib/thumb/v7e-m+fp/hard/libg_nano.a(lib_a-makebuf.o)
 .data          0x0000000000000000        0x0 /usr/local/bin/../lib/gcc/arm-none-eabi/10.2.1/../../../../arm-none-eabi/lib/thumb/v7e-m+fp/hard/libg_nano.a(lib_a-makebuf.o)
 .bss           0x0000000000000000        0x0 /usr/local/bin/../lib/gcc/arm-none-eabi/10.2.1/../../../../arm-none-eabi/lib/thumb/v7e-m+fp/hard/libg_nano.a(lib_a-makebuf.o)
 .text          0x0000000000000000        0x0 /usr/local/bin/../lib/gcc/arm-none-eabi/10.2.1/../../../../arm-none-eabi/lib/thumb/v7e-m+fp/hard/libg_nano.a(lib_a-malloc.o)
 .data          0x0000000000000000        0x0 /usr/local/bin/../lib/gcc/arm-none-eabi/10.2.1/../../../../arm-none-eabi/lib/thumb/v7e-m+fp/hard/libg_nano.a(lib_a-malloc.o)
 .bss           0x0000000000000000        0x0 /usr/local/bin/../lib/gcc/arm-none-eabi/10.2.1/../../../../arm-none-eabi/lib/thumb/v7e-m+fp/hard/libg_nano.a(lib_a-malloc.o)
 .text.free     0x0000000000000000       0x10 /usr/local/bin/../lib/gcc/arm-none-eabi/10.2.1/../../../../arm-none-eabi/lib/thumb/v7e-m+fp/hard/libg_nano.a(lib_a-malloc.o)
 .text          0x0000000000000000        0x0 /usr/local/bin/../lib/gcc/arm-none-eabi/10.2.1/../../../../arm-none-eabi/lib/thumb/v7e-m+fp/hard/libg_nano.a(lib_a-mbtowc_r.o)
 .data          0x0000000000000000        0x0 /usr/local/bin/../lib/gcc/arm-none-eabi/10.2.1/../../../../arm-none-eabi/lib/thumb/v7e-m+fp/hard/libg_nano.a(lib_a-mbtowc_r.o)
 .bss           0x0000000000000000        0x0 /usr/local/bin/../lib/gcc/arm-none-eabi/10.2.1/../../../../arm-none-eabi/lib/thumb/v7e-m+fp/hard/libg_nano.a(lib_a-mbtowc_r.o)
 .text._mbtowc_r
                0x0000000000000000       0x14 /usr/local/bin/../lib/gcc/arm-none-eabi/10.2.1/../../../../arm-none-eabi/lib/thumb/v7e-m+fp/hard/libg_nano.a(lib_a-mbtowc_r.o)
 .data          0x0000000000000000        0x0 /usr/local/bin/../lib/gcc/arm-none-eabi/10.2.1/../../../../arm-none-eabi/lib/thumb/v7e-m+fp/hard/libg_nano.a(lib_a-memchr.o)
 .bss           0x0000000000000000        0x0 /usr/local/bin/../lib/gcc/arm-none-eabi/10.2.1/../../../../arm-none-eabi/lib/thumb/v7e-m+fp/hard/libg_nano.a(lib_a-memchr.o)
 .text          0x0000000000000000        0x0 /usr/local/bin/../lib/gcc/arm-none-eabi/10.2.1/../../../../arm-none-eabi/lib/thumb/v7e-m+fp/hard/libg_nano.a(lib_a-memcpy-stub.o)
 .data          0x0000000000000000        0x0 /usr/local/bin/../lib/gcc/arm-none-eabi/10.2.1/../../../../arm-none-eabi/lib/thumb/v7e-m+fp/hard/libg_nano.a(lib_a-memcpy-stub.o)
 .bss           0x0000000000000000        0x0 /usr/local/bin/../lib/gcc/arm-none-eabi/10.2.1/../../../../arm-none-eabi/lib/thumb/v7e-m+fp/hard/libg_nano.a(lib_a-memcpy-stub.o)
 .text          0x0000000000000000        0x0 /usr/local/bin/../lib/gcc/arm-none-eabi/10.2.1/../../../../arm-none-eabi/lib/thumb/v7e-m+fp/hard/libg_nano.a(lib_a-mlock.o)
 .data          0x0000000000000000        0x0 /usr/local/bin/../lib/gcc/arm-none-eabi/10.2.1/../../../../arm-none-eabi/lib/thumb/v7e-m+fp/hard/libg_nano.a(lib_a-mlock.o)
 .bss           0x0000000000000000        0x0 /usr/local/bin/../lib/gcc/arm-none-eabi/10.2.1/../../../../arm-none-eabi/lib/thumb/v7e-m+fp/hard/libg_nano.a(lib_a-mlock.o)
 .text          0x0000000000000000        0x0 /usr/local/bin/../lib/gcc/arm-none-eabi/10.2.1/../../../../arm-none-eabi/lib/thumb/v7e-m+fp/hard/libg_nano.a(lib_a-mprec.o)
 .data          0x0000000000000000        0x0 /usr/local/bin/../lib/gcc/arm-none-eabi/10.2.1/../../../../arm-none-eabi/lib/thumb/v7e-m+fp/hard/libg_nano.a(lib_a-mprec.o)
 .bss           0x0000000000000000        0x0 /usr/local/bin/../lib/gcc/arm-none-eabi/10.2.1/../../../../arm-none-eabi/lib/thumb/v7e-m+fp/hard/libg_nano.a(lib_a-mprec.o)
 .text.__s2b    0x0000000000000000       0x94 /usr/local/bin/../lib/gcc/arm-none-eabi/10.2.1/../../../../arm-none-eabi/lib/thumb/v7e-m+fp/hard/libg_nano.a(lib_a-mprec.o)
 .text.__ulp    0x0000000000000000       0x58 /usr/local/bin/../lib/gcc/arm-none-eabi/10.2.1/../../../../arm-none-eabi/lib/thumb/v7e-m+fp/hard/libg_nano.a(lib_a-mprec.o)
 .text.__b2d    0x0000000000000000       0xa0 /usr/local/bin/../lib/gcc/arm-none-eabi/10.2.1/../../../../arm-none-eabi/lib/thumb/v7e-m+fp/hard/libg_nano.a(lib_a-mprec.o)
 .text.__ratio  0x0000000000000000       0x66 /usr/local/bin/../lib/gcc/arm-none-eabi/10.2.1/../../../../arm-none-eabi/lib/thumb/v7e-m+fp/hard/libg_nano.a(lib_a-mprec.o)
 .text._mprec_log10
                0x0000000000000000       0x3c /usr/local/bin/../lib/gcc/arm-none-eabi/10.2.1/../../../../arm-none-eabi/lib/thumb/v7e-m+fp/hard/libg_nano.a(lib_a-mprec.o)
 .text.__copybits
                0x0000000000000000       0x46 /usr/local/bin/../lib/gcc/arm-none-eabi/10.2.1/../../../../arm-none-eabi/lib/thumb/v7e-m+fp/hard/libg_nano.a(lib_a-mprec.o)
 .text.__any_on
                0x0000000000000000       0x42 /usr/local/bin/../lib/gcc/arm-none-eabi/10.2.1/../../../../arm-none-eabi/lib/thumb/v7e-m+fp/hard/libg_nano.a(lib_a-mprec.o)
 .rodata.__mprec_tinytens
                0x0000000000000000       0x28 /usr/local/bin/../lib/gcc/arm-none-eabi/10.2.1/../../../../arm-none-eabi/lib/thumb/v7e-m+fp/hard/libg_nano.a(lib_a-mprec.o)
 .text          0x0000000000000000        0x0 /usr/local/bin/../lib/gcc/arm-none-eabi/10.2.1/../../../../arm-none-eabi/lib/thumb/v7e-m+fp/hard/libg_nano.a(lib_a-nano-callocr.o)
 .data          0x0000000000000000        0x0 /usr/local/bin/../lib/gcc/arm-none-eabi/10.2.1/../../../../arm-none-eabi/lib/thumb/v7e-m+fp/hard/libg_nano.a(lib_a-nano-callocr.o)
 .bss           0x0000000000000000        0x0 /usr/local/bin/../lib/gcc/arm-none-eabi/10.2.1/../../../../arm-none-eabi/lib/thumb/v7e-m+fp/hard/libg_nano.a(lib_a-nano-callocr.o)
 .text          0x0000000000000000        0x0 /usr/local/bin/../lib/gcc/arm-none-eabi/10.2.1/../../../../arm-none-eabi/lib/thumb/v7e-m+fp/hard/libg_nano.a(lib_a-nano-svfprintf.o)
 .data          0x0000000000000000        0x0 /usr/local/bin/../lib/gcc/arm-none-eabi/10.2.1/../../../../arm-none-eabi/lib/thumb/v7e-m+fp/hard/libg_nano.a(lib_a-nano-svfprintf.o)
 .bss           0x0000000000000000        0x0 /usr/local/bin/../lib/gcc/arm-none-eabi/10.2.1/../../../../arm-none-eabi/lib/thumb/v7e-m+fp/hard/libg_nano.a(lib_a-nano-svfprintf.o)
 .text.__ssprint_r
                0x0000000000000000       0xf6 /usr/local/bin/../lib/gcc/arm-none-eabi/10.2.1/../../../../arm-none-eabi/lib/thumb/v7e-m+fp/hard/libg_nano.a(lib_a-nano-svfprintf.o)
 .text          0x0000000000000000        0x0 /usr/local/bin/../lib/gcc/arm-none-eabi/10.2.1/../../../../arm-none-eabi/lib/thumb/v7e-m+fp/hard/libg_nano.a(lib_a-nano-vfprintf.o)
 .data          0x0000000000000000        0x0 /usr/local/bin/../lib/gcc/arm-none-eabi/10.2.1/../../../../arm-none-eabi/lib/thumb/v7e-m+fp/hard/libg_nano.a(lib_a-nano-vfprintf.o)
 .bss           0x0000000000000000        0x0 /usr/local/bin/../lib/gcc/arm-none-eabi/10.2.1/../../../../arm-none-eabi/lib/thumb/v7e-m+fp/hard/libg_nano.a(lib_a-nano-vfprintf.o)
 .text.__sprint_r
                0x0000000000000000       0x1a /usr/local/bin/../lib/gcc/arm-none-eabi/10.2.1/../../../../arm-none-eabi/lib/thumb/v7e-m+fp/hard/libg_nano.a(lib_a-nano-vfprintf.o)
 .text.vfprintf
                0x0000000000000000       0x14 /usr/local/bin/../lib/gcc/arm-none-eabi/10.2.1/../../../../arm-none-eabi/lib/thumb/v7e-m+fp/hard/libg_nano.a(lib_a-nano-vfprintf.o)
 .text          0x0000000000000000        0x0 /usr/local/bin/../lib/gcc/arm-none-eabi/10.2.1/../../../../arm-none-eabi/lib/thumb/v7e-m+fp/hard/libg_nano.a(lib_a-putc.o)
 .data          0x0000000000000000        0x0 /usr/local/bin/../lib/gcc/arm-none-eabi/10.2.1/../../../../arm-none-eabi/lib/thumb/v7e-m+fp/hard/libg_nano.a(lib_a-putc.o)
 .bss           0x0000000000000000        0x0 /usr/local/bin/../lib/gcc/arm-none-eabi/10.2.1/../../../../arm-none-eabi/lib/thumb/v7e-m+fp/hard/libg_nano.a(lib_a-putc.o)
 .text.putc     0x0000000000000000       0x10 /usr/local/bin/../lib/gcc/arm-none-eabi/10.2.1/../../../../arm-none-eabi/lib/thumb/v7e-m+fp/hard/libg_nano.a(lib_a-putc.o)
 .text          0x0000000000000000        0x0 /usr/local/bin/../lib/gcc/arm-none-eabi/10.2.1/../../../../arm-none-eabi/lib/thumb/v7e-m+fp/hard/libg_nano.a(lib_a-s_nan.o)
 .data          0x0000000000000000        0x0 /usr/local/bin/../lib/gcc/arm-none-eabi/10.2.1/../../../../arm-none-eabi/lib/thumb/v7e-m+fp/hard/libg_nano.a(lib_a-s_nan.o)
 .bss           0x0000000000000000        0x0 /usr/local/bin/../lib/gcc/arm-none-eabi/10.2.1/../../../../arm-none-eabi/lib/thumb/v7e-m+fp/hard/libg_nano.a(lib_a-s_nan.o)
 .text.nan      0x0000000000000000       0x10 /usr/local/bin/../lib/gcc/arm-none-eabi/10.2.1/../../../../arm-none-eabi/lib/thumb/v7e-m+fp/hard/libg_nano.a(lib_a-s_nan.o)
 .debug_frame   0x0000000000000000       0x20 /usr/local/bin/../lib/gcc/arm-none-eabi/10.2.1/../../../../arm-none-eabi/lib/thumb/v7e-m+fp/hard/libg_nano.a(lib_a-s_nan.o)
 .ARM.attributes
                0x0000000000000000       0x34 /usr/local/bin/../lib/gcc/arm-none-eabi/10.2.1/../../../../arm-none-eabi/lib/thumb/v7e-m+fp/hard/libg_nano.a(lib_a-s_nan.o)
 .text          0x0000000000000000        0x0 /usr/local/bin/../lib/gcc/arm-none-eabi/10.2.1/../../../../arm-none-eabi/lib/thumb/v7e-m+fp/hard/libg_nano.a(lib_a-sf_nan.o)
 .data          0x0000000000000000        0x0 /usr/local/bin/../lib/gcc/arm-none-eabi/10.2.1/../../../../arm-none-eabi/lib/thumb/v7e-m+fp/hard/libg_nano.a(lib_a-sf_nan.o)
 .bss           0x0000000000000000        0x0 /usr/local/bin/../lib/gcc/arm-none-eabi/10.2.1/../../../../arm-none-eabi/lib/thumb/v7e-m+fp/hard/libg_nano.a(lib_a-sf_nan.o)
 .text.nanf     0x0000000000000000        0xc /usr/local/bin/../lib/gcc/arm-none-eabi/10.2.1/../../../../arm-none-eabi/lib/thumb/v7e-m+fp/hard/libg_nano.a(lib_a-sf_nan.o)
 .debug_frame   0x0000000000000000       0x20 /usr/local/bin/../lib/gcc/arm-none-eabi/10.2.1/../../../../arm-none-eabi/lib/thumb/v7e-m+fp/hard/libg_nano.a(lib_a-sf_nan.o)
 .ARM.attributes
                0x0000000000000000       0x34 /usr/local/bin/../lib/gcc/arm-none-eabi/10.2.1/../../../../arm-none-eabi/lib/thumb/v7e-m+fp/hard/libg_nano.a(lib_a-sf_nan.o)
 .text          0x0000000000000000       0x14 /usr/local/bin/../lib/gcc/arm-none-eabi/10.2.1/../../../../arm-none-eabi/lib/thumb/v7e-m+fp/hard/libg_nano.a(lib_a-strcmp.o)
 .data          0x0000000000000000        0x0 /usr/local/bin/../lib/gcc/arm-none-eabi/10.2.1/../../../../arm-none-eabi/lib/thumb/v7e-m+fp/hard/libg_nano.a(lib_a-strcmp.o)
 .bss           0x0000000000000000        0x0 /usr/local/bin/../lib/gcc/arm-none-eabi/10.2.1/../../../../arm-none-eabi/lib/thumb/v7e-m+fp/hard/libg_nano.a(lib_a-strcmp.o)
 .debug_frame   0x0000000000000000       0x20 /usr/local/bin/../lib/gcc/arm-none-eabi/10.2.1/../../../../arm-none-eabi/lib/thumb/v7e-m+fp/hard/libg_nano.a(lib_a-strcmp.o)
 .ARM.attributes
                0x0000000000000000       0x1c /usr/local/bin/../lib/gcc/arm-none-eabi/10.2.1/../../../../arm-none-eabi/lib/thumb/v7e-m+fp/hard/libg_nano.a(lib_a-strcmp.o)
 .text          0x0000000000000000        0x0 /usr/local/bin/../lib/gcc/arm-none-eabi/10.2.1/../../../../arm-none-eabi/lib/thumb/v7e-m+fp/hard/libg_nano.a(lib_a-strncmp.o)
 .data          0x0000000000000000        0x0 /usr/local/bin/../lib/gcc/arm-none-eabi/10.2.1/../../../../arm-none-eabi/lib/thumb/v7e-m+fp/hard/libg_nano.a(lib_a-strncmp.o)
 .bss           0x0000000000000000        0x0 /usr/local/bin/../lib/gcc/arm-none-eabi/10.2.1/../../../../arm-none-eabi/lib/thumb/v7e-m+fp/hard/libg_nano.a(lib_a-strncmp.o)
 .text.strncmp  0x0000000000000000       0x28 /usr/local/bin/../lib/gcc/arm-none-eabi/10.2.1/../../../../arm-none-eabi/lib/thumb/v7e-m+fp/hard/libg_nano.a(lib_a-strncmp.o)
 .debug_frame   0x0000000000000000       0x28 /usr/local/bin/../lib/gcc/arm-none-eabi/10.2.1/../../../../arm-none-eabi/lib/thumb/v7e-m+fp/hard/libg_nano.a(lib_a-strncmp.o)
 .ARM.attributes
                0x0000000000000000       0x34 /usr/local/bin/../lib/gcc/arm-none-eabi/10.2.1/../../../../arm-none-eabi/lib/thumb/v7e-m+fp/hard/libg_nano.a(lib_a-strncmp.o)
 .text          0x0000000000000000        0x0 /usr/local/bin/../lib/gcc/arm-none-eabi/10.2.1/../../../../arm-none-eabi/lib/thumb/v7e-m+fp/hard/libg_nano.a(lib_a-wctomb_r.o)
 .data          0x0000000000000000        0x0 /usr/local/bin/../lib/gcc/arm-none-eabi/10.2.1/../../../../arm-none-eabi/lib/thumb/v7e-m+fp/hard/libg_nano.a(lib_a-wctomb_r.o)
 .bss           0x0000000000000000        0x0 /usr/local/bin/../lib/gcc/arm-none-eabi/10.2.1/../../../../arm-none-eabi/lib/thumb/v7e-m+fp/hard/libg_nano.a(lib_a-wctomb_r.o)
 .text._wctomb_r
                0x0000000000000000       0x14 /usr/local/bin/../lib/gcc/arm-none-eabi/10.2.1/../../../../arm-none-eabi/lib/thumb/v7e-m+fp/hard/libg_nano.a(lib_a-wctomb_r.o)
 .text          0x0000000000000000        0x0 /usr/local/bin/../lib/gcc/arm-none-eabi/10.2.1/../../../../arm-none-eabi/lib/thumb/v7e-m+fp/hard/libg_nano.a(lib_a-abort.o)
 .data          0x0000000000000000        0x0 /usr/local/bin/../lib/gcc/arm-none-eabi/10.2.1/../../../../arm-none-eabi/lib/thumb/v7e-m+fp/hard/libg_nano.a(lib_a-abort.o)
 .bss           0x0000000000000000        0x0 /usr/local/bin/../lib/gcc/arm-none-eabi/10.2.1/../../../../arm-none-eabi/lib/thumb/v7e-m+fp/hard/libg_nano.a(lib_a-abort.o)
 .text          0x0000000000000000        0x0 /usr/local/bin/../lib/gcc/arm-none-eabi/10.2.1/../../../../arm-none-eabi/lib/thumb/v7e-m+fp/hard/libg_nano.a(lib_a-fvwrite.o)
 .data          0x0000000000000000        0x0 /usr/local/bin/../lib/gcc/arm-none-eabi/10.2.1/../../../../arm-none-eabi/lib/thumb/v7e-m+fp/hard/libg_nano.a(lib_a-fvwrite.o)
 .bss           0x0000000000000000        0x0 /usr/local/bin/../lib/gcc/arm-none-eabi/10.2.1/../../../../arm-none-eabi/lib/thumb/v7e-m+fp/hard/libg_nano.a(lib_a-fvwrite.o)
 .text.__sfvwrite_r
                0x0000000000000000      0x294 /usr/local/bin/../lib/gcc/arm-none-eabi/10.2.1/../../../../arm-none-eabi/lib/thumb/v7e-m+fp/hard/libg_nano.a(lib_a-fvwrite.o)
 .debug_frame   0x0000000000000000       0x3c /usr/local/bin/../lib/gcc/arm-none-eabi/10.2.1/../../../../arm-none-eabi/lib/thumb/v7e-m+fp/hard/libg_nano.a(lib_a-fvwrite.o)
 .ARM.attributes
                0x0000000000000000       0x34 /usr/local/bin/../lib/gcc/arm-none-eabi/10.2.1/../../../../arm-none-eabi/lib/thumb/v7e-m+fp/hard/libg_nano.a(lib_a-fvwrite.o)
 .text          0x0000000000000000        0x0 /usr/local/bin/../lib/gcc/arm-none-eabi/10.2.1/../../../../arm-none-eabi/lib/thumb/v7e-m+fp/hard/libg_nano.a(lib_a-memmove.o)
 .data          0x0000000000000000        0x0 /usr/local/bin/../lib/gcc/arm-none-eabi/10.2.1/../../../../arm-none-eabi/lib/thumb/v7e-m+fp/hard/libg_nano.a(lib_a-memmove.o)
 .bss           0x0000000000000000        0x0 /usr/local/bin/../lib/gcc/arm-none-eabi/10.2.1/../../../../arm-none-eabi/lib/thumb/v7e-m+fp/hard/libg_nano.a(lib_a-memmove.o)
 .text          0x0000000000000000        0x0 /usr/local/bin/../lib/gcc/arm-none-eabi/10.2.1/../../../../arm-none-eabi/lib/thumb/v7e-m+fp/hard/libg_nano.a(lib_a-nano-reallocr.o)
 .data          0x0000000000000000        0x0 /usr/local/bin/../lib/gcc/arm-none-eabi/10.2.1/../../../../arm-none-eabi/lib/thumb/v7e-m+fp/hard/libg_nano.a(lib_a-nano-reallocr.o)
 .bss           0x0000000000000000        0x0 /usr/local/bin/../lib/gcc/arm-none-eabi/10.2.1/../../../../arm-none-eabi/lib/thumb/v7e-m+fp/hard/libg_nano.a(lib_a-nano-reallocr.o)
 .text          0x0000000000000000        0x0 /usr/local/bin/../lib/gcc/arm-none-eabi/10.2.1/../../../../arm-none-eabi/lib/thumb/v7e-m+fp/hard/libg_nano.a(lib_a-signal.o)
 .data          0x0000000000000000        0x0 /usr/local/bin/../lib/gcc/arm-none-eabi/10.2.1/../../../../arm-none-eabi/lib/thumb/v7e-m+fp/hard/libg_nano.a(lib_a-signal.o)
 .bss           0x0000000000000000        0x0 /usr/local/bin/../lib/gcc/arm-none-eabi/10.2.1/../../../../arm-none-eabi/lib/thumb/v7e-m+fp/hard/libg_nano.a(lib_a-signal.o)
 .text._init_signal_r
                0x0000000000000000       0x28 /usr/local/bin/../lib/gcc/arm-none-eabi/10.2.1/../../../../arm-none-eabi/lib/thumb/v7e-m+fp/hard/libg_nano.a(lib_a-signal.o)
 .text._signal_r
                0x0000000000000000       0x30 /usr/local/bin/../lib/gcc/arm-none-eabi/10.2.1/../../../../arm-none-eabi/lib/thumb/v7e-m+fp/hard/libg_nano.a(lib_a-signal.o)
 .text.__sigtramp_r
                0x0000000000000000       0x48 /usr/local/bin/../lib/gcc/arm-none-eabi/10.2.1/../../../../arm-none-eabi/lib/thumb/v7e-m+fp/hard/libg_nano.a(lib_a-signal.o)
 .text.signal   0x0000000000000000       0x10 /usr/local/bin/../lib/gcc/arm-none-eabi/10.2.1/../../../../arm-none-eabi/lib/thumb/v7e-m+fp/hard/libg_nano.a(lib_a-signal.o)
 .text._init_signal
                0x0000000000000000        0xc /usr/local/bin/../lib/gcc/arm-none-eabi/10.2.1/../../../../arm-none-eabi/lib/thumb/v7e-m+fp/hard/libg_nano.a(lib_a-signal.o)
 .text.__sigtramp
                0x0000000000000000       0x10 /usr/local/bin/../lib/gcc/arm-none-eabi/10.2.1/../../../../arm-none-eabi/lib/thumb/v7e-m+fp/hard/libg_nano.a(lib_a-signal.o)
 .text          0x0000000000000000        0x0 /usr/local/bin/../lib/gcc/arm-none-eabi/10.2.1/../../../../arm-none-eabi/lib/thumb/v7e-m+fp/hard/libg_nano.a(lib_a-signalr.o)
 .data          0x0000000000000000        0x0 /usr/local/bin/../lib/gcc/arm-none-eabi/10.2.1/../../../../arm-none-eabi/lib/thumb/v7e-m+fp/hard/libg_nano.a(lib_a-signalr.o)
 .bss           0x0000000000000000        0x0 /usr/local/bin/../lib/gcc/arm-none-eabi/10.2.1/../../../../arm-none-eabi/lib/thumb/v7e-m+fp/hard/libg_nano.a(lib_a-signalr.o)
 .text          0x0000000000000000        0x0 /usr/local/bin/../lib/gcc/arm-none-eabi/10.2.1/../../../../arm-none-eabi/lib/thumb/v7e-m+fp/hard/libg_nano.a(lib_a-nano-msizer.o)
 .data          0x0000000000000000        0x0 /usr/local/bin/../lib/gcc/arm-none-eabi/10.2.1/../../../../arm-none-eabi/lib/thumb/v7e-m+fp/hard/libg_nano.a(lib_a-nano-msizer.o)
 .bss           0x0000000000000000        0x0 /usr/local/bin/../lib/gcc/arm-none-eabi/10.2.1/../../../../arm-none-eabi/lib/thumb/v7e-m+fp/hard/libg_nano.a(lib_a-nano-msizer.o)
 .text          0x0000000000000000        0x0 /usr/local/bin/../lib/gcc/arm-none-eabi/10.2.1/../../../../arm-none-eabi/lib/thumb/v7e-m+fp/hard/libg_nano.a(lib_a-reent.o)
 .data          0x0000000000000000        0x0 /usr/local/bin/../lib/gcc/arm-none-eabi/10.2.1/../../../../arm-none-eabi/lib/thumb/v7e-m+fp/hard/libg_nano.a(lib_a-reent.o)
 .bss           0x0000000000000000        0x0 /usr/local/bin/../lib/gcc/arm-none-eabi/10.2.1/../../../../arm-none-eabi/lib/thumb/v7e-m+fp/hard/libg_nano.a(lib_a-reent.o)
 .text.cleanup_glue
                0x0000000000000000       0x1a /usr/local/bin/../lib/gcc/arm-none-eabi/10.2.1/../../../../arm-none-eabi/lib/thumb/v7e-m+fp/hard/libg_nano.a(lib_a-reent.o)
 .text._reclaim_reent
                0x0000000000000000       0xb8 /usr/local/bin/../lib/gcc/arm-none-eabi/10.2.1/../../../../arm-none-eabi/lib/thumb/v7e-m+fp/hard/libg_nano.a(lib_a-reent.o)
 .data          0x0000000000000000        0x0 /usr/local/bin/../lib/gcc/arm-none-eabi/10.2.1/thumb/v7e-m+fp/hard/libgcc.a(_arm_muldivdf3.o)
 .bss           0x0000000000000000        0x0 /usr/local/bin/../lib/gcc/arm-none-eabi/10.2.1/thumb/v7e-m+fp/hard/libgcc.a(_arm_muldivdf3.o)
 .data          0x0000000000000000        0x0 /usr/local/bin/../lib/gcc/arm-none-eabi/10.2.1/thumb/v7e-m+fp/hard/libgcc.a(_arm_cmpdf2.o)
 .bss           0x0000000000000000        0x0 /usr/local/bin/../lib/gcc/arm-none-eabi/10.2.1/thumb/v7e-m+fp/hard/libgcc.a(_arm_cmpdf2.o)
 .data          0x0000000000000000        0x0 /usr/local/bin/../lib/gcc/arm-none-eabi/10.2.1/thumb/v7e-m+fp/hard/libgcc.a(_arm_unorddf2.o)
 .bss           0x0000000000000000        0x0 /usr/local/bin/../lib/gcc/arm-none-eabi/10.2.1/thumb/v7e-m+fp/hard/libgcc.a(_arm_unorddf2.o)
 .text          0x0000000000000000       0x40 /usr/local/bin/../lib/gcc/arm-none-eabi/10.2.1/thumb/v7e-m+fp/hard/libgcc.a(_arm_fixunsdfsi.o)
 .data          0x0000000000000000        0x0 /usr/local/bin/../lib/gcc/arm-none-eabi/10.2.1/thumb/v7e-m+fp/hard/libgcc.a(_arm_fixunsdfsi.o)
 .bss           0x0000000000000000        0x0 /usr/local/bin/../lib/gcc/arm-none-eabi/10.2.1/thumb/v7e-m+fp/hard/libgcc.a(_arm_fixunsdfsi.o)
 .debug_frame   0x0000000000000000       0x24 /usr/local/bin/../lib/gcc/arm-none-eabi/10.2.1/thumb/v7e-m+fp/hard/libgcc.a(_arm_fixunsdfsi.o)
 .ARM.attributes
                0x0000000000000000       0x1e /usr/local/bin/../lib/gcc/arm-none-eabi/10.2.1/thumb/v7e-m+fp/hard/libgcc.a(_arm_fixunsdfsi.o)
 .text          0x0000000000000000       0xa0 /usr/local/bin/../lib/gcc/arm-none-eabi/10.2.1/thumb/v7e-m+fp/hard/libgcc.a(_arm_truncdfsf2.o)
 .data          0x0000000000000000        0x0 /usr/local/bin/../lib/gcc/arm-none-eabi/10.2.1/thumb/v7e-m+fp/hard/libgcc.a(_arm_truncdfsf2.o)
 .bss           0x0000000000000000        0x0 /usr/local/bin/../lib/gcc/arm-none-eabi/10.2.1/thumb/v7e-m+fp/hard/libgcc.a(_arm_truncdfsf2.o)
 .debug_frame   0x0000000000000000       0x24 /usr/local/bin/../lib/gcc/arm-none-eabi/10.2.1/thumb/v7e-m+fp/hard/libgcc.a(_arm_truncdfsf2.o)
 .ARM.attributes
                0x0000000000000000       0x1e /usr/local/bin/../lib/gcc/arm-none-eabi/10.2.1/thumb/v7e-m+fp/hard/libgcc.a(_arm_truncdfsf2.o)
 .text          0x0000000000000000       0x30 /usr/local/bin/../lib/gcc/arm-none-eabi/10.2.1/thumb/v7e-m+fp/hard/libgcc.a(_fixdfdi.o)
 .data          0x0000000000000000        0x0 /usr/local/bin/../lib/gcc/arm-none-eabi/10.2.1/thumb/v7e-m+fp/hard/libgcc.a(_fixdfdi.o)
 .bss           0x0000000000000000        0x0 /usr/local/bin/../lib/gcc/arm-none-eabi/10.2.1/thumb/v7e-m+fp/hard/libgcc.a(_fixdfdi.o)
 .debug_frame   0x0000000000000000       0x38 /usr/local/bin/../lib/gcc/arm-none-eabi/10.2.1/thumb/v7e-m+fp/hard/libgcc.a(_fixdfdi.o)
 .ARM.attributes
                0x0000000000000000       0x34 /usr/local/bin/../lib/gcc/arm-none-eabi/10.2.1/thumb/v7e-m+fp/hard/libgcc.a(_fixdfdi.o)
 .text          0x0000000000000000       0x3c /usr/local/bin/../lib/gcc/arm-none-eabi/10.2.1/thumb/v7e-m+fp/hard/libgcc.a(_fixunsdfdi.o)
 .data          0x0000000000000000        0x0 /usr/local/bin/../lib/gcc/arm-none-eabi/10.2.1/thumb/v7e-m+fp/hard/libgcc.a(_fixunsdfdi.o)
 .bss           0x0000000000000000        0x0 /usr/local/bin/../lib/gcc/arm-none-eabi/10.2.1/thumb/v7e-m+fp/hard/libgcc.a(_fixunsdfdi.o)
 .debug_frame   0x0000000000000000       0x2c /usr/local/bin/../lib/gcc/arm-none-eabi/10.2.1/thumb/v7e-m+fp/hard/libgcc.a(_fixunsdfdi.o)
 .ARM.attributes
                0x0000000000000000       0x34 /usr/local/bin/../lib/gcc/arm-none-eabi/10.2.1/thumb/v7e-m+fp/hard/libgcc.a(_fixunsdfdi.o)
 .text          0x0000000000000000        0x0 /usr/local/bin/../lib/gcc/arm-none-eabi/10.2.1/thumb/v7e-m+fp/hard/crtend.o
 .data          0x0000000000000000        0x0 /usr/local/bin/../lib/gcc/arm-none-eabi/10.2.1/thumb/v7e-m+fp/hard/crtend.o
 .bss           0x0000000000000000        0x0 /usr/local/bin/../lib/gcc/arm-none-eabi/10.2.1/thumb/v7e-m+fp/hard/crtend.o
 .rodata        0x0000000000000000       0x24 /usr/local/bin/../lib/gcc/arm-none-eabi/10.2.1/thumb/v7e-m+fp/hard/crtend.o
 .eh_frame      0x0000000000000000        0x4 /usr/local/bin/../lib/gcc/arm-none-eabi/10.2.1/thumb/v7e-m+fp/hard/crtend.o
 .ARM.attributes
                0x0000000000000000       0x32 /usr/local/bin/../lib/gcc/arm-none-eabi/10.2.1/thumb/v7e-m+fp/hard/crtend.o
 .text          0x0000000000000000        0x0 /usr/local/bin/../lib/gcc/arm-none-eabi/10.2.1/thumb/v7e-m+fp/hard/crtn.o
 .data          0x0000000000000000        0x0 /usr/local/bin/../lib/gcc/arm-none-eabi/10.2.1/thumb/v7e-m+fp/hard/crtn.o
 .bss           0x0000000000000000        0x0 /usr/local/bin/../lib/gcc/arm-none-eabi/10.2.1/thumb/v7e-m+fp/hard/crtn.o

Memory Configuration

Name             Origin             Length             Attributes
RAM              0x0000000020000000 0x0000000000020000 xrw
FLASH            0x0000000008000000 0x0000000000080000 xr
*default*        0x0000000000000000 0xffffffffffffffff

Linker script and memory map

LOAD /usr/local/bin/../lib/gcc/arm-none-eabi/10.2.1/thumb/v7e-m+fp/hard/crti.o
LOAD /usr/local/bin/../lib/gcc/arm-none-eabi/10.2.1/thumb/v7e-m+fp/hard/crtbegin.o
LOAD /usr/local/bin/../lib/gcc/arm-none-eabi/10.2.1/../../../../arm-none-eabi/lib/thumb/v7e-m+fp/hard/crt0.o
LOAD build/my_main.o
LOAD build/mycode.o
LOAD build/mytest.o
LOAD build/adc_example.o
LOAD build/monitor/decoder/STM32F411.o
LOAD build/cubemx_stm32f411/startup_stm32f411xe.o
LOAD build/syscall.o
LOAD build/monitor/monitor.o
LOAD build/monitor/parser.o
LOAD build/monitor/dump.o
LOAD build/monitor/terminal.o
LOAD build/monitor/wdog.o
LOAD build/monitor/tasking.o
LOAD build/monitor/default.o
LOAD build/monitor/decoder/decoder.o
LOAD build/cubemx_stm32f411/Core/Src/main.o
LOAD build/cubemx_stm32f411/Core/Src/stm32f4xx_it.o
LOAD build/cubemx_stm32f411/Core/Src/stm32f4xx_hal_msp.o
LOAD build/cubemx_stm32f411/Core/Src/system_stm32f4xx.o
LOAD build/cubemx_stm32f411/Drivers/STM32F4xx_HAL_Driver/Src/stm32f4xx_hal_rcc.o
LOAD build/cubemx_stm32f411/Drivers/STM32F4xx_HAL_Driver/Src/stm32f4xx_hal_rcc_ex.o
LOAD build/cubemx_stm32f411/Drivers/STM32F4xx_HAL_Driver/Src/stm32f4xx_hal.o
LOAD build/cubemx_stm32f411/Drivers/STM32F4xx_HAL_Driver/Src/stm32f4xx_hal_cortex.o
LOAD build/cubemx_stm32f411/Drivers/STM32F4xx_HAL_Driver/Src/stm32f4xx_hal_uart.o
LOAD build/cubemx_stm32f411/Drivers/STM32F4xx_HAL_Driver/Src/stm32f4xx_hal_gpio.o
LOAD build/cubemx_stm32f411/Drivers/STM32F4xx_HAL_Driver/Src/stm32f4xx_hal_iwdg.o
LOAD build/cubemx_stm32f411/Drivers/STM32F4xx_HAL_Driver/Src/stm32f4xx_hal_rtc.o
LOAD build/cubemx_stm32f411/Drivers/STM32F4xx_HAL_Driver/Src/stm32f4xx_hal_rtc_ex.o
LOAD build/cubemx_stm32f411/Drivers/STM32F4xx_HAL_Driver/Src/stm32f4xx_hal_adc.o
LOAD build/cubemx_stm32f411/Drivers/STM32F4xx_HAL_Driver/Src/stm32f4xx_hal_adc_ex.o
LOAD build/cubemx_stm32f411/Drivers/STM32F4xx_HAL_Driver/Src/stm32f4xx_hal_dac.o
LOAD build/cubemx_stm32f411/Drivers/STM32F4xx_HAL_Driver/Src/stm32f4xx_hal_dac_ex.o
LOAD build/cubemx_stm32f411/Drivers/STM32F4xx_HAL_Driver/Src/stm32f4xx_hal_tim.o
LOAD build/cubemx_stm32f411/Drivers/STM32F4xx_HAL_Driver/Src/stm32f4xx_hal_tim_ex.o
LOAD build/cubemx_stm32f411/Drivers/STM32F4xx_HAL_Driver/Src/stm32f4xx_hal_flash.o
LOAD build/cubemx_stm32f411/Drivers/STM32F4xx_HAL_Driver/Src/stm32f4xx_hal_flash_ex.o
LOAD build/cubemx_stm32f411/Drivers/STM32F4xx_HAL_Driver/Src/stm32f4xx_hal_pwr.o
LOAD build/cubemx_stm32f411/Drivers/STM32F4xx_HAL_Driver/Src/stm32f4xx_hal_pwr_ex.o
LOAD build/version.o
START GROUP
LOAD /usr/local/bin/../lib/gcc/arm-none-eabi/10.2.1/thumb/v7e-m+fp/hard/libgcc.a
LOAD /usr/local/bin/../lib/gcc/arm-none-eabi/10.2.1/../../../../arm-none-eabi/lib/thumb/v7e-m+fp/hard/libg_nano.a
LOAD /usr/local/bin/../lib/gcc/arm-none-eabi/10.2.1/../../../../arm-none-eabi/lib/thumb/v7e-m+fp/hard/libc_nano.a
END GROUP
START GROUP
LOAD /usr/local/bin/../lib/gcc/arm-none-eabi/10.2.1/thumb/v7e-m+fp/hard/libgcc.a
LOAD /usr/local/bin/../lib/gcc/arm-none-eabi/10.2.1/../../../../arm-none-eabi/lib/thumb/v7e-m+fp/hard/libc_nano.a
END GROUP
LOAD /usr/local/bin/../lib/gcc/arm-none-eabi/10.2.1/thumb/v7e-m+fp/hard/crtend.o
LOAD /usr/local/bin/../lib/gcc/arm-none-eabi/10.2.1/thumb/v7e-m+fp/hard/crtn.o
                0x0000000020020000                _estack = 0x20020000
                0x0000000000000200                _Min_Heap_Size = 0x200
                0x0000000000000400                _Min_Stack_Size = 0x400

.isr_vector     0x0000000008000000      0x198
                0x0000000008000000                . = ALIGN (0x4)
 *(.isr_vector)
 .isr_vector    0x0000000008000000      0x198 build/cubemx_stm32f411/startup_stm32f411xe.o
                0x0000000008000000                g_pfnVectors
                0x0000000008000198                . = ALIGN (0x4)

.text           0x00000000080001a0     0x643c
                0x00000000080001a0                . = ALIGN (0x4)
 *(.text)
 .text          0x00000000080001a0       0x40 /usr/local/bin/../lib/gcc/arm-none-eabi/10.2.1/thumb/v7e-m+fp/hard/crtbegin.o
 .text          0x00000000080001e0       0x34 build/mycode.o
                0x00000000080001e0                mytest
                0x00000000080001f4                my_Tick
                0x0000000008000208                my_Loop
                0x000000000800020c                my_Init
 .text          0x0000000008000214      0x378 /usr/local/bin/../lib/gcc/arm-none-eabi/10.2.1/thumb/v7e-m+fp/hard/libgcc.a(_arm_addsubdf3.o)
                0x0000000008000214                __aeabi_drsub
                0x000000000800021c                __aeabi_dsub
                0x000000000800021c                __subdf3
                0x0000000008000220                __adddf3
                0x0000000008000220                __aeabi_dadd
                0x0000000008000498                __aeabi_ui2d
                0x0000000008000498                __floatunsidf
                0x00000000080004b8                __floatsidf
                0x00000000080004b8                __aeabi_i2d
                0x00000000080004dc                __extendsfdf2
                0x00000000080004dc                __aeabi_f2d
                0x0000000008000520                __aeabi_ul2d
                0x0000000008000520                __floatundidf
                0x0000000008000530                __floatdidf
                0x0000000008000530                __aeabi_l2d
 .text          0x000000000800058c       0x50 /usr/local/bin/../lib/gcc/arm-none-eabi/10.2.1/thumb/v7e-m+fp/hard/libgcc.a(_arm_fixdfsi.o)
                0x000000000800058c                __fixdfsi
                0x000000000800058c                __aeabi_d2iz
 .text          0x00000000080005dc       0x30 /usr/local/bin/../lib/gcc/arm-none-eabi/10.2.1/thumb/v7e-m+fp/hard/libgcc.a(_aeabi_uldivmod.o)
                0x00000000080005dc                __aeabi_uldivmod
 .text          0x000000000800060c      0x2d0 /usr/local/bin/../lib/gcc/arm-none-eabi/10.2.1/thumb/v7e-m+fp/hard/libgcc.a(_udivmoddi4.o)
                0x000000000800060c                __udivmoddi4
 .text          0x00000000080008dc        0x4 /usr/local/bin/../lib/gcc/arm-none-eabi/10.2.1/thumb/v7e-m+fp/hard/libgcc.a(_dvmd_tls.o)
                0x00000000080008dc                __aeabi_ldiv0
                0x00000000080008dc                __aeabi_idiv0
 .text          0x00000000080008e0       0x10 /usr/local/bin/../lib/gcc/arm-none-eabi/10.2.1/../../../../arm-none-eabi/lib/thumb/v7e-m+fp/hard/libg_nano.a(lib_a-strlen.o)
                0x00000000080008e0                strlen
 .text          0x00000000080008f0       0xa0 /usr/local/bin/../lib/gcc/arm-none-eabi/10.2.1/../../../../arm-none-eabi/lib/thumb/v7e-m+fp/hard/libg_nano.a(lib_a-memchr.o)
                0x00000000080008f0                memchr
 .text          0x0000000008000990      0x424 /usr/local/bin/../lib/gcc/arm-none-eabi/10.2.1/thumb/v7e-m+fp/hard/libgcc.a(_arm_muldivdf3.o)
                0x0000000008000990                __aeabi_dmul
                0x0000000008000990                __muldf3
                0x0000000008000be4                __aeabi_ddiv
                0x0000000008000be4                __divdf3
 .text          0x0000000008000db4      0x110 /usr/local/bin/../lib/gcc/arm-none-eabi/10.2.1/thumb/v7e-m+fp/hard/libgcc.a(_arm_cmpdf2.o)
                0x0000000008000db4                __gtdf2
                0x0000000008000db4                __gedf2
                0x0000000008000dbc                __ltdf2
                0x0000000008000dbc                __ledf2
                0x0000000008000dc4                __cmpdf2
                0x0000000008000dc4                __eqdf2
                0x0000000008000dc4                __nedf2
                0x0000000008000e40                __aeabi_cdrcmple
                0x0000000008000e50                __aeabi_cdcmple
                0x0000000008000e50                __aeabi_cdcmpeq
                0x0000000008000e60                __aeabi_dcmpeq
                0x0000000008000e74                __aeabi_dcmplt
                0x0000000008000e88                __aeabi_dcmple
                0x0000000008000e9c                __aeabi_dcmpge
                0x0000000008000eb0                __aeabi_dcmpgt
 .text          0x0000000008000ec4       0x2c /usr/local/bin/../lib/gcc/arm-none-eabi/10.2.1/thumb/v7e-m+fp/hard/libgcc.a(_arm_unorddf2.o)
                0x0000000008000ec4                __aeabi_dcmpun
                0x0000000008000ec4                __unorddf2
 *(.text*)
 .text.CmdLed   0x0000000008000ef0       0x50 build/my_main.o
                0x0000000008000ef0                CmdLed
 .text.my_init  0x0000000008000f40       0x16 build/my_main.o
                0x0000000008000f40                my_init
 .text.my_main  0x0000000008000f56       0x12 build/my_main.o
                0x0000000008000f56                my_main
 .text.CmdTest  0x0000000008000f68       0x2c build/mytest.o
                0x0000000008000f68                CmdTest
 .text.USR_LED_Toggle
                0x0000000008000f94       0x14 build/mytest.o
                0x0000000008000f94                USR_LED_Toggle
 .text.printProgress
                0x0000000008000fa8       0x5c build/adc_example.o
                0x0000000008000fa8                printProgress
 .text.ADCInit  0x0000000008001004       0x9c build/adc_example.o
                0x0000000008001004                ADCInit
 .text.getReadingFromAdc
                0x00000000080010a0       0x84 build/adc_example.o
                0x00000000080010a0                getReadingFromAdc
 *fill*         0x0000000008001124        0x4 
 .text.AdcEvent
                0x0000000008001128       0x7c build/adc_example.o
                0x0000000008001128                AdcEvent
 .text.Reset_Handler
                0x00000000080011a4       0x50 build/cubemx_stm32f411/startup_stm32f411xe.o
                0x00000000080011a4                Reset_Handler
 .text.Default_Handler
                0x00000000080011f4        0x6 build/cubemx_stm32f411/startup_stm32f411xe.o
                0x00000000080011f4                RTC_Alarm_IRQHandler
                0x00000000080011f4                EXTI2_IRQHandler
                0x00000000080011f4                SPI4_IRQHandler
                0x00000000080011f4                TIM1_CC_IRQHandler
                0x00000000080011f4                DMA2_Stream5_IRQHandler
                0x00000000080011f4                DMA1_Stream5_IRQHandler
                0x00000000080011f4                PVD_IRQHandler
                0x00000000080011f4                SDIO_IRQHandler
                0x00000000080011f4                TAMP_STAMP_IRQHandler
                0x00000000080011f4                EXTI3_IRQHandler
                0x00000000080011f4                TIM1_UP_TIM10_IRQHandler
                0x00000000080011f4                I2C3_ER_IRQHandler
                0x00000000080011f4                EXTI0_IRQHandler
                0x00000000080011f4                I2C2_EV_IRQHandler
                0x00000000080011f4                DMA1_Stream2_IRQHandler
                0x00000000080011f4                FPU_IRQHandler
                0x00000000080011f4                DMA2_Stream2_IRQHandler
                0x00000000080011f4                SPI1_IRQHandler
                0x00000000080011f4                TIM1_BRK_TIM9_IRQHandler
                0x00000000080011f4                DMA2_Stream3_IRQHandler
                0x00000000080011f4                USART6_IRQHandler
                0x00000000080011f4                DMA2_Stream0_IRQHandler
                0x00000000080011f4                TIM4_IRQHandler
                0x00000000080011f4                I2C1_EV_IRQHandler
                0x00000000080011f4                DMA1_Stream6_IRQHandler
                0x00000000080011f4                DMA1_Stream1_IRQHandler
                0x00000000080011f4                TIM3_IRQHandler
                0x00000000080011f4                RCC_IRQHandler
                0x00000000080011f4                Default_Handler
                0x00000000080011f4                EXTI15_10_IRQHandler
                0x00000000080011f4                ADC_IRQHandler
                0x00000000080011f4                DMA1_Stream7_IRQHandler
                0x00000000080011f4                SPI5_IRQHandler
                0x00000000080011f4                TIM5_IRQHandler
                0x00000000080011f4                DMA2_Stream7_IRQHandler
                0x00000000080011f4                I2C3_EV_IRQHandler
                0x00000000080011f4                EXTI9_5_IRQHandler
                0x00000000080011f4                RTC_WKUP_IRQHandler
                0x00000000080011f4                SPI2_IRQHandler
                0x00000000080011f4                DMA1_Stream0_IRQHandler
                0x00000000080011f4                EXTI4_IRQHandler
                0x00000000080011f4                WWDG_IRQHandler
                0x00000000080011f4                TIM2_IRQHandler
                0x00000000080011f4                OTG_FS_WKUP_IRQHandler
                0x00000000080011f4                TIM1_TRG_COM_TIM11_IRQHandler
                0x00000000080011f4                EXTI1_IRQHandler
                0x00000000080011f4                I2C2_ER_IRQHandler
                0x00000000080011f4                DMA2_Stream1_IRQHandler
                0x00000000080011f4                FLASH_IRQHandler
                0x00000000080011f4                DMA2_Stream4_IRQHandler
                0x00000000080011f4                USART1_IRQHandler
                0x00000000080011f4                OTG_FS_IRQHandler
                0x00000000080011f4                SPI3_IRQHandler
                0x00000000080011f4                DMA1_Stream4_IRQHandler
                0x00000000080011f4                I2C1_ER_IRQHandler
                0x00000000080011f4                DMA2_Stream6_IRQHandler
                0x00000000080011f4                DMA1_Stream3_IRQHandler
 *fill*         0x00000000080011fa        0x2 
 .text._sbrk_r  0x00000000080011fc       0x30 build/syscall.o
                0x00000000080011fc                _sbrk_r
 .text._close_r
                0x000000000800122c        0x4 build/syscall.o
                0x000000000800122c                _close_r
 .text._fstat_r
                0x0000000008001230        0xa build/syscall.o
                0x0000000008001230                _fstat_r
 .text._isatty_r
                0x000000000800123a        0x4 build/syscall.o
                0x000000000800123a                _isatty_r
 .text._lseek_r
                0x000000000800123e        0x4 build/syscall.o
                0x000000000800123e                _lseek_r
 .text._read_r  0x0000000008001242        0xa build/syscall.o
                0x0000000008001242                _read_r
 .text._write_r
                0x000000000800124c       0x40 build/syscall.o
                0x000000000800124c                _write_r
 .text._kill    0x000000000800128c        0x6 build/syscall.o
                0x000000000800128c                _kill
 .text._exit    0x0000000008001292        0x2 build/syscall.o
                0x0000000008001292                _exit
 .text._getpid  0x0000000008001294        0x4 build/syscall.o
                0x0000000008001294                _getpid
 .text.CmdW     0x0000000008001298       0x1e build/monitor/monitor.o
                0x0000000008001298                CmdW
 *fill*         0x00000000080012b6        0x2 
 .text.CmdR     0x00000000080012b8       0x70 build/monitor/monitor.o
                0x00000000080012b8                CmdR
 .text.parse    0x0000000008001328      0x110 build/monitor/parser.o
                0x0000000008001328                parse
 .text.TaskInput
                0x0000000008001438      0x138 build/monitor/parser.o
                0x0000000008001438                TaskInput
 .text.fetch_uint32_arg
                0x0000000008001570       0x3c build/monitor/parser.o
                0x0000000008001570                fetch_uint32_arg
 .text.fetch_string_arg
                0x00000000080015ac       0x30 build/monitor/parser.o
                0x00000000080015ac                fetch_string_arg
 .text.fetch_cmd_args
                0x00000000080015dc       0x10 build/monitor/parser.o
                0x00000000080015dc                fetch_cmd_args
 .text.DumpBuffer
                0x00000000080015ec       0xb0 build/monitor/dump.o
                0x00000000080015ec                DumpBuffer
 .text.CmdDump  0x000000000800169c       0x54 build/monitor/dump.o
                0x000000000800169c                CmdDump
 .text.CmdStats
                0x00000000080016f0       0x68 build/monitor/terminal.o
                0x00000000080016f0                CmdStats
 .text.CmdTransparent
                0x0000000008001758       0x44 build/monitor/terminal.o
                0x0000000008001758                CmdTransparent
 .text.TerminalInit
                0x000000000800179c       0x4c build/monitor/terminal.o
                0x000000000800179c                TerminalInit
 .text.TerminalRead
                0x00000000080017e8       0x4c build/monitor/terminal.o
                0x00000000080017e8                TerminalRead
 .text.CmdReceive
                0x0000000008001834       0x60 build/monitor/terminal.o
                0x0000000008001834                CmdReceive
 .text.TerminalOutputBufferWrite
                0x0000000008001894       0xc8 build/monitor/terminal.o
                0x0000000008001894                TerminalOutputBufferWrite
 .text.CmdSend  0x000000000800195c       0x78 build/monitor/terminal.o
                0x000000000800195c                CmdSend
 .text.TerminalWritePolled
                0x00000000080019d4       0x28 build/monitor/terminal.o
                0x00000000080019d4                TerminalWritePolled
 .text.PolledPrintf
                0x00000000080019fc       0x2a build/monitor/terminal.o
                0x00000000080019fc                PolledPrintf
 *fill*         0x0000000008001a26        0x2 
 .text.TerminalInputBufferWrite
                0x0000000008001a28       0x64 build/monitor/terminal.o
                0x0000000008001a28                TerminalInputBufferWrite
 .text.TerminalISR
                0x0000000008001a8c       0xe0 build/monitor/terminal.o
                0x0000000008001a8c                TerminalISR
 .text.USART2_IRQHandler
                0x0000000008001b6c        0x6 build/monitor/terminal.o
                0x0000000008001b6c                USART2_IRQHandler
 *fill*         0x0000000008001b72        0x2 
 .text.WDTCheckReset
                0x0000000008001b74       0x88 build/monitor/wdog.o
                0x0000000008001b74                WDTCheckReset
 .text.WDTFeed  0x0000000008001bfc        0xc build/monitor/wdog.o
                0x0000000008001bfc                WDTFeed
 .text.CmdTasks
                0x0000000008001c08       0x44 build/monitor/tasking.o
                0x0000000008001c08                CmdTasks
 .text.TaskingInit
                0x0000000008001c4c       0x2c build/monitor/tasking.o
                0x0000000008001c4c                TaskingInit
 .text.TaskingTickHandler
                0x0000000008001c78       0x10 build/monitor/tasking.o
                0x0000000008001c78                TaskingTickHandler
 .text.TaskingRun
                0x0000000008001c88       0x68 build/monitor/tasking.o
                0x0000000008001c88                TaskingRun
 .text.Default_IRQHandler
                0x0000000008001cf0       0x58 build/monitor/default.o
                0x0000000008001cf0                Default_IRQHandler
 .text.Uncompress
                0x0000000008001d48       0x7c build/monitor/decoder/decoder.o
 .text.DecodeReadRegister
                0x0000000008001dc4       0x54 build/monitor/decoder/decoder.o
                0x0000000008001dc4                DecodeReadRegister
 .text.DecodeWriteRegister
                0x0000000008001e18       0x54 build/monitor/decoder/decoder.o
                0x0000000008001e18                DecodeWriteRegister
 .text.DecodeField
                0x0000000008001e6c       0x50 build/monitor/decoder/decoder.o
                0x0000000008001e6c                DecodeField
 .text.DecodeRegister
                0x0000000008001ebc       0x60 build/monitor/decoder/decoder.o
                0x0000000008001ebc                DecodeRegister
 .text.DecodePeripheral
                0x0000000008001f1c       0x54 build/monitor/decoder/decoder.o
                0x0000000008001f1c                DecodePeripheral
 .text.DecodePrintPeripherals
                0x0000000008001f70       0x54 build/monitor/decoder/decoder.o
                0x0000000008001f70                DecodePrintPeripherals
 .text.DecodePrintRegisters
                0x0000000008001fc4       0x64 build/monitor/decoder/decoder.o
                0x0000000008001fc4                DecodePrintRegisters
 .text.CmdDecode
                0x0000000008002028      0x28c build/monitor/decoder/decoder.o
                0x0000000008002028                CmdDecode
 .text.SystemClock_Config
                0x00000000080022b4       0x9c build/cubemx_stm32f411/Core/Src/main.o
                0x00000000080022b4                SystemClock_Config
 .text.startup.main
                0x0000000008002350      0x108 build/cubemx_stm32f411/Core/Src/main.o
                0x0000000008002350                main
 .text.NMI_Handler
                0x0000000008002458        0x2 build/cubemx_stm32f411/Core/Src/stm32f4xx_it.o
                0x0000000008002458                NMI_Handler
 .text.HardFault_Handler
                0x000000000800245a        0x2 build/cubemx_stm32f411/Core/Src/stm32f4xx_it.o
                0x000000000800245a                HardFault_Handler
 .text.MemManage_Handler
                0x000000000800245c        0x2 build/cubemx_stm32f411/Core/Src/stm32f4xx_it.o
                0x000000000800245c                MemManage_Handler
 .text.BusFault_Handler
                0x000000000800245e        0x2 build/cubemx_stm32f411/Core/Src/stm32f4xx_it.o
                0x000000000800245e                BusFault_Handler
 .text.UsageFault_Handler
                0x0000000008002460        0x2 build/cubemx_stm32f411/Core/Src/stm32f4xx_it.o
                0x0000000008002460                UsageFault_Handler
 .text.SVC_Handler
                0x0000000008002462        0x2 build/cubemx_stm32f411/Core/Src/stm32f4xx_it.o
                0x0000000008002462                SVC_Handler
 .text.DebugMon_Handler
                0x0000000008002464        0x2 build/cubemx_stm32f411/Core/Src/stm32f4xx_it.o
                0x0000000008002464                DebugMon_Handler
 .text.PendSV_Handler
                0x0000000008002466        0x2 build/cubemx_stm32f411/Core/Src/stm32f4xx_it.o
                0x0000000008002466                PendSV_Handler
 .text.SysTick_Handler
                0x0000000008002468       0x12 build/cubemx_stm32f411/Core/Src/stm32f4xx_it.o
                0x0000000008002468                SysTick_Handler
 *fill*         0x000000000800247a        0x2 
 .text.HAL_MspInit
                0x000000000800247c       0x3c build/cubemx_stm32f411/Core/Src/stm32f4xx_hal_msp.o
                0x000000000800247c                HAL_MspInit
 .text.HAL_UART_MspInit
                0x00000000080024b8       0x7c build/cubemx_stm32f411/Core/Src/stm32f4xx_hal_msp.o
                0x00000000080024b8                HAL_UART_MspInit
 .text.SystemInit
                0x0000000008002534       0x14 build/cubemx_stm32f411/Core/Src/system_stm32f4xx.o
                0x0000000008002534                SystemInit
 .text.HAL_RCC_OscConfig
                0x0000000008002548      0x360 build/cubemx_stm32f411/Drivers/STM32F4xx_HAL_Driver/Src/stm32f4xx_hal_rcc.o
                0x0000000008002548                HAL_RCC_OscConfig
 .text.HAL_RCC_GetSysClockFreq
                0x00000000080028a8       0x5c build/cubemx_stm32f411/Drivers/STM32F4xx_HAL_Driver/Src/stm32f4xx_hal_rcc.o
                0x00000000080028a8                HAL_RCC_GetSysClockFreq
 .text.HAL_RCC_ClockConfig
                0x0000000008002904      0x138 build/cubemx_stm32f411/Drivers/STM32F4xx_HAL_Driver/Src/stm32f4xx_hal_rcc.o
                0x0000000008002904                HAL_RCC_ClockConfig
 .text.HAL_RCC_GetPCLK1Freq
                0x0000000008002a3c       0x20 build/cubemx_stm32f411/Drivers/STM32F4xx_HAL_Driver/Src/stm32f4xx_hal_rcc.o
                0x0000000008002a3c                HAL_RCC_GetPCLK1Freq
 .text.HAL_RCC_GetPCLK2Freq
                0x0000000008002a5c       0x20 build/cubemx_stm32f411/Drivers/STM32F4xx_HAL_Driver/Src/stm32f4xx_hal_rcc.o
                0x0000000008002a5c                HAL_RCC_GetPCLK2Freq
 .text.HAL_InitTick
                0x0000000008002a7c       0x48 build/cubemx_stm32f411/Drivers/STM32F4xx_HAL_Driver/Src/stm32f4xx_hal.o
                0x0000000008002a7c                HAL_InitTick
 .text.HAL_Init
                0x0000000008002ac4       0x34 build/cubemx_stm32f411/Drivers/STM32F4xx_HAL_Driver/Src/stm32f4xx_hal.o
                0x0000000008002ac4                HAL_Init
 .text.HAL_IncTick
                0x0000000008002af8       0x18 build/cubemx_stm32f411/Drivers/STM32F4xx_HAL_Driver/Src/stm32f4xx_hal.o
                0x0000000008002af8                HAL_IncTick
 .text.HAL_GetTick
                0x0000000008002b10        0xc build/cubemx_stm32f411/Drivers/STM32F4xx_HAL_Driver/Src/stm32f4xx_hal.o
                0x0000000008002b10                HAL_GetTick
 .text.HAL_NVIC_SetPriorityGrouping
                0x0000000008002b1c       0x24 build/cubemx_stm32f411/Drivers/STM32F4xx_HAL_Driver/Src/stm32f4xx_hal_cortex.o
                0x0000000008002b1c                HAL_NVIC_SetPriorityGrouping
 .text.HAL_NVIC_SetPriority
                0x0000000008002b40       0x64 build/cubemx_stm32f411/Drivers/STM32F4xx_HAL_Driver/Src/stm32f4xx_hal_cortex.o
                0x0000000008002b40                HAL_NVIC_SetPriority
 .text.HAL_NVIC_EnableIRQ
                0x0000000008002ba4       0x1c build/cubemx_stm32f411/Drivers/STM32F4xx_HAL_Driver/Src/stm32f4xx_hal_cortex.o
                0x0000000008002ba4                HAL_NVIC_EnableIRQ
 .text.HAL_SYSTICK_Config
                0x0000000008002bc0       0x28 build/cubemx_stm32f411/Drivers/STM32F4xx_HAL_Driver/Src/stm32f4xx_hal_cortex.o
                0x0000000008002bc0                HAL_SYSTICK_Config
 .text.UART_SetConfig
                0x0000000008002be8       0xbc build/cubemx_stm32f411/Drivers/STM32F4xx_HAL_Driver/Src/stm32f4xx_hal_uart.o
 .text.HAL_UART_Init
                0x0000000008002ca4       0x5c build/cubemx_stm32f411/Drivers/STM32F4xx_HAL_Driver/Src/stm32f4xx_hal_uart.o
                0x0000000008002ca4                HAL_UART_Init
 .text.HAL_GPIO_Init
                0x0000000008002d00      0x190 build/cubemx_stm32f411/Drivers/STM32F4xx_HAL_Driver/Src/stm32f4xx_hal_gpio.o
                0x0000000008002d00                HAL_GPIO_Init
 .text.HAL_GPIO_WritePin
                0x0000000008002e90        0xa build/cubemx_stm32f411/Drivers/STM32F4xx_HAL_Driver/Src/stm32f4xx_hal_gpio.o
                0x0000000008002e90                HAL_GPIO_WritePin
 .text.HAL_IWDG_Init
                0x0000000008002e9a       0x50 build/cubemx_stm32f411/Drivers/STM32F4xx_HAL_Driver/Src/stm32f4xx_hal_iwdg.o
                0x0000000008002e9a                HAL_IWDG_Init
 .text.HAL_IWDG_Refresh
                0x0000000008002eea        0xc build/cubemx_stm32f411/Drivers/STM32F4xx_HAL_Driver/Src/stm32f4xx_hal_iwdg.o
                0x0000000008002eea                HAL_IWDG_Refresh
 .text.HAL_ADC_MspInit
                0x0000000008002ef6        0x2 build/cubemx_stm32f411/Drivers/STM32F4xx_HAL_Driver/Src/stm32f4xx_hal_adc.o
                0x0000000008002ef6                HAL_ADC_MspInit
 .text.HAL_ADC_Init
                0x0000000008002ef8      0x14c build/cubemx_stm32f411/Drivers/STM32F4xx_HAL_Driver/Src/stm32f4xx_hal_adc.o
                0x0000000008002ef8                HAL_ADC_Init
 .text.HAL_ADC_Start
                0x0000000008003044       0xec build/cubemx_stm32f411/Drivers/STM32F4xx_HAL_Driver/Src/stm32f4xx_hal_adc.o
                0x0000000008003044                HAL_ADC_Start
 .text.HAL_ADC_Stop
                0x0000000008003130       0x36 build/cubemx_stm32f411/Drivers/STM32F4xx_HAL_Driver/Src/stm32f4xx_hal_adc.o
                0x0000000008003130                HAL_ADC_Stop
 .text.HAL_ADC_PollForConversion
                0x0000000008003166       0xa6 build/cubemx_stm32f411/Drivers/STM32F4xx_HAL_Driver/Src/stm32f4xx_hal_adc.o
                0x0000000008003166                HAL_ADC_PollForConversion
 .text.HAL_ADC_GetValue
                0x000000000800320c        0x6 build/cubemx_stm32f411/Drivers/STM32F4xx_HAL_Driver/Src/stm32f4xx_hal_adc.o
                0x000000000800320c                HAL_ADC_GetValue
 *fill*         0x0000000008003212        0x2 
 .text.HAL_ADC_ConfigChannel
                0x0000000008003214      0x138 build/cubemx_stm32f411/Drivers/STM32F4xx_HAL_Driver/Src/stm32f4xx_hal_adc.o
                0x0000000008003214                HAL_ADC_ConfigChannel
 .text.VersionPrint
                0x000000000800334c       0x18 build/version.o
                0x000000000800334c                VersionPrint
 .text.CmdVersion
                0x0000000008003364        0xc build/version.o
                0x0000000008003364                CmdVersion
 .text.__errno  0x0000000008003370        0xc /usr/local/bin/../lib/gcc/arm-none-eabi/10.2.1/../../../../arm-none-eabi/lib/thumb/v7e-m+fp/hard/libg_nano.a(lib_a-errno.o)
                0x0000000008003370                __errno
 .text.__sflush_r
                0x000000000800337c      0x10c /usr/local/bin/../lib/gcc/arm-none-eabi/10.2.1/../../../../arm-none-eabi/lib/thumb/v7e-m+fp/hard/libg_nano.a(lib_a-fflush.o)
                0x000000000800337c                __sflush_r
 .text._fflush_r
                0x0000000008003488       0x78 /usr/local/bin/../lib/gcc/arm-none-eabi/10.2.1/../../../../arm-none-eabi/lib/thumb/v7e-m+fp/hard/libg_nano.a(lib_a-fflush.o)
                0x0000000008003488                _fflush_r
 .text.fflush   0x0000000008003500       0x24 /usr/local/bin/../lib/gcc/arm-none-eabi/10.2.1/../../../../arm-none-eabi/lib/thumb/v7e-m+fp/hard/libg_nano.a(lib_a-fflush.o)
                0x0000000008003500                fflush
 .text.std      0x0000000008003524       0x48 /usr/local/bin/../lib/gcc/arm-none-eabi/10.2.1/../../../../arm-none-eabi/lib/thumb/v7e-m+fp/hard/libg_nano.a(lib_a-findfp.o)
 .text._cleanup_r
                0x000000000800356c        0xc /usr/local/bin/../lib/gcc/arm-none-eabi/10.2.1/../../../../arm-none-eabi/lib/thumb/v7e-m+fp/hard/libg_nano.a(lib_a-findfp.o)
                0x000000000800356c                _cleanup_r
 .text.__sfmoreglue
                0x0000000008003578       0x2c /usr/local/bin/../lib/gcc/arm-none-eabi/10.2.1/../../../../arm-none-eabi/lib/thumb/v7e-m+fp/hard/libg_nano.a(lib_a-findfp.o)
                0x0000000008003578                __sfmoreglue
 .text.__sfp_lock_acquire
                0x00000000080035a4        0xc /usr/local/bin/../lib/gcc/arm-none-eabi/10.2.1/../../../../arm-none-eabi/lib/thumb/v7e-m+fp/hard/libg_nano.a(lib_a-findfp.o)
                0x00000000080035a4                __sfp_lock_acquire
 .text.__sfp_lock_release
                0x00000000080035b0        0xc /usr/local/bin/../lib/gcc/arm-none-eabi/10.2.1/../../../../arm-none-eabi/lib/thumb/v7e-m+fp/hard/libg_nano.a(lib_a-findfp.o)
                0x00000000080035b0                __sfp_lock_release
 .text.__sinit_lock_acquire
                0x00000000080035bc        0xc /usr/local/bin/../lib/gcc/arm-none-eabi/10.2.1/../../../../arm-none-eabi/lib/thumb/v7e-m+fp/hard/libg_nano.a(lib_a-findfp.o)
                0x00000000080035bc                __sinit_lock_acquire
 .text.__sinit_lock_release
                0x00000000080035c8        0xc /usr/local/bin/../lib/gcc/arm-none-eabi/10.2.1/../../../../arm-none-eabi/lib/thumb/v7e-m+fp/hard/libg_nano.a(lib_a-findfp.o)
                0x00000000080035c8                __sinit_lock_release
 .text.__sinit  0x00000000080035d4       0x70 /usr/local/bin/../lib/gcc/arm-none-eabi/10.2.1/../../../../arm-none-eabi/lib/thumb/v7e-m+fp/hard/libg_nano.a(lib_a-findfp.o)
                0x00000000080035d4                __sinit
 .text.__sfp    0x0000000008003644       0x8c /usr/local/bin/../lib/gcc/arm-none-eabi/10.2.1/../../../../arm-none-eabi/lib/thumb/v7e-m+fp/hard/libg_nano.a(lib_a-findfp.o)
                0x0000000008003644                __sfp
 .text._fwalk_reent
                0x00000000080036d0       0x3e /usr/local/bin/../lib/gcc/arm-none-eabi/10.2.1/../../../../arm-none-eabi/lib/thumb/v7e-m+fp/hard/libg_nano.a(lib_a-fwalk.o)
                0x00000000080036d0                _fwalk_reent
 *fill*         0x000000000800370e        0x2 
 .text.__libc_init_array
                0x0000000008003710       0x48 /usr/local/bin/../lib/gcc/arm-none-eabi/10.2.1/../../../../arm-none-eabi/lib/thumb/v7e-m+fp/hard/libg_nano.a(lib_a-init.o)
                0x0000000008003710                __libc_init_array
 .text.__retarget_lock_init_recursive
                0x0000000008003758        0x2 /usr/local/bin/../lib/gcc/arm-none-eabi/10.2.1/../../../../arm-none-eabi/lib/thumb/v7e-m+fp/hard/libg_nano.a(lib_a-lock.o)
                0x0000000008003758                __retarget_lock_init_recursive
 .text.__retarget_lock_acquire_recursive
                0x000000000800375a        0x2 /usr/local/bin/../lib/gcc/arm-none-eabi/10.2.1/../../../../arm-none-eabi/lib/thumb/v7e-m+fp/hard/libg_nano.a(lib_a-lock.o)
                0x000000000800375a                __retarget_lock_acquire_recursive
 .text.__retarget_lock_release_recursive
                0x000000000800375c        0x2 /usr/local/bin/../lib/gcc/arm-none-eabi/10.2.1/../../../../arm-none-eabi/lib/thumb/v7e-m+fp/hard/libg_nano.a(lib_a-lock.o)
                0x000000000800375c                __retarget_lock_release_recursive
 .text.memset   0x000000000800375e       0x10 /usr/local/bin/../lib/gcc/arm-none-eabi/10.2.1/../../../../arm-none-eabi/lib/thumb/v7e-m+fp/hard/libg_nano.a(lib_a-memset.o)
                0x000000000800375e                memset
 *fill*         0x000000000800376e        0x2 
 .text._free_r  0x0000000008003770       0x98 /usr/local/bin/../lib/gcc/arm-none-eabi/10.2.1/../../../../arm-none-eabi/lib/thumb/v7e-m+fp/hard/libg_nano.a(lib_a-nano-freer.o)
                0x0000000008003770                _free_r
 .text._malloc_r
                0x0000000008003808       0xb4 /usr/local/bin/../lib/gcc/arm-none-eabi/10.2.1/../../../../arm-none-eabi/lib/thumb/v7e-m+fp/hard/libg_nano.a(lib_a-nano-mallocr.o)
                0x0000000008003808                _malloc_r
 .text.__cvt    0x00000000080038bc       0xc4 /usr/local/bin/../lib/gcc/arm-none-eabi/10.2.1/../../../../arm-none-eabi/lib/thumb/v7e-m+fp/hard/libg_nano.a(lib_a-nano-vfprintf_float.o)
                0x00000000080038bc                __cvt
 .text.__exponent
                0x0000000008003980       0x7c /usr/local/bin/../lib/gcc/arm-none-eabi/10.2.1/../../../../arm-none-eabi/lib/thumb/v7e-m+fp/hard/libg_nano.a(lib_a-nano-vfprintf_float.o)
                0x0000000008003980                __exponent
 .text._printf_float
                0x00000000080039fc      0x46c /usr/local/bin/../lib/gcc/arm-none-eabi/10.2.1/../../../../arm-none-eabi/lib/thumb/v7e-m+fp/hard/libg_nano.a(lib_a-nano-vfprintf_float.o)
                0x00000000080039fc                _printf_float
 .text._printf_common
                0x0000000008003e68       0xda /usr/local/bin/../lib/gcc/arm-none-eabi/10.2.1/../../../../arm-none-eabi/lib/thumb/v7e-m+fp/hard/libg_nano.a(lib_a-nano-vfprintf_i.o)
                0x0000000008003e68                _printf_common
 *fill*         0x0000000008003f42        0x2 
 .text._printf_i
                0x0000000008003f44      0x24c /usr/local/bin/../lib/gcc/arm-none-eabi/10.2.1/../../../../arm-none-eabi/lib/thumb/v7e-m+fp/hard/libg_nano.a(lib_a-nano-vfprintf_i.o)
                0x0000000008003f44                _printf_i
 .text.printf   0x0000000008004190       0x30 /usr/local/bin/../lib/gcc/arm-none-eabi/10.2.1/../../../../arm-none-eabi/lib/thumb/v7e-m+fp/hard/libg_nano.a(lib_a-printf.o)
                0x0000000008004190                printf
                0x0000000008004190                iprintf
 .text.putchar  0x00000000080041c0       0x2c /usr/local/bin/../lib/gcc/arm-none-eabi/10.2.1/../../../../arm-none-eabi/lib/thumb/v7e-m+fp/hard/libg_nano.a(lib_a-putchar.o)
                0x00000000080041c0                putchar
 .text._puts_r  0x00000000080041ec       0xdc /usr/local/bin/../lib/gcc/arm-none-eabi/10.2.1/../../../../arm-none-eabi/lib/thumb/v7e-m+fp/hard/libg_nano.a(lib_a-puts.o)
                0x00000000080041ec                _puts_r
 .text.puts     0x00000000080042c8       0x10 /usr/local/bin/../lib/gcc/arm-none-eabi/10.2.1/../../../../arm-none-eabi/lib/thumb/v7e-m+fp/hard/libg_nano.a(lib_a-puts.o)
                0x00000000080042c8                puts
 .text.setvbuf  0x00000000080042d8      0x18c /usr/local/bin/../lib/gcc/arm-none-eabi/10.2.1/../../../../arm-none-eabi/lib/thumb/v7e-m+fp/hard/libg_nano.a(lib_a-setvbuf.o)
                0x00000000080042d8                setvbuf
 .text.__sread  0x0000000008004464       0x22 /usr/local/bin/../lib/gcc/arm-none-eabi/10.2.1/../../../../arm-none-eabi/lib/thumb/v7e-m+fp/hard/libg_nano.a(lib_a-stdio.o)
                0x0000000008004464                __sread
 .text.__swrite
                0x0000000008004486       0x38 /usr/local/bin/../lib/gcc/arm-none-eabi/10.2.1/../../../../arm-none-eabi/lib/thumb/v7e-m+fp/hard/libg_nano.a(lib_a-stdio.o)
                0x0000000008004486                __swrite
 .text.__sseek  0x00000000080044be       0x24 /usr/local/bin/../lib/gcc/arm-none-eabi/10.2.1/../../../../arm-none-eabi/lib/thumb/v7e-m+fp/hard/libg_nano.a(lib_a-stdio.o)
                0x00000000080044be                __sseek
 .text.__sclose
                0x00000000080044e2        0x8 /usr/local/bin/../lib/gcc/arm-none-eabi/10.2.1/../../../../arm-none-eabi/lib/thumb/v7e-m+fp/hard/libg_nano.a(lib_a-stdio.o)
                0x00000000080044e2                __sclose
 *fill*         0x00000000080044ea        0x2 
 .text.strcasecmp
                0x00000000080044ec       0x34 /usr/local/bin/../lib/gcc/arm-none-eabi/10.2.1/../../../../arm-none-eabi/lib/thumb/v7e-m+fp/hard/libg_nano.a(lib_a-strcasecmp.o)
                0x00000000080044ec                strcasecmp
 .text.strcpy   0x0000000008004520       0x10 /usr/local/bin/../lib/gcc/arm-none-eabi/10.2.1/../../../../arm-none-eabi/lib/thumb/v7e-m+fp/hard/libg_nano.a(lib_a-strcpy.o)
                0x0000000008004520                strcpy
 .text.strtok   0x0000000008004530       0x68 /usr/local/bin/../lib/gcc/arm-none-eabi/10.2.1/../../../../arm-none-eabi/lib/thumb/v7e-m+fp/hard/libg_nano.a(lib_a-strtok.o)
                0x0000000008004530                strtok
 .text.__strtok_r
                0x0000000008004598       0x50 /usr/local/bin/../lib/gcc/arm-none-eabi/10.2.1/../../../../arm-none-eabi/lib/thumb/v7e-m+fp/hard/libg_nano.a(lib_a-strtok_r.o)
                0x0000000008004598                __strtok_r
 .text._strtoul_l.constprop.0
                0x00000000080045e8       0xe4 /usr/local/bin/../lib/gcc/arm-none-eabi/10.2.1/../../../../arm-none-eabi/lib/thumb/v7e-m+fp/hard/libg_nano.a(lib_a-strtoul.o)
 .text.strtoul  0x00000000080046cc       0x14 /usr/local/bin/../lib/gcc/arm-none-eabi/10.2.1/../../../../arm-none-eabi/lib/thumb/v7e-m+fp/hard/libg_nano.a(lib_a-strtoul.o)
                0x00000000080046cc                strtoul
 .text._vsnprintf_r
                0x00000000080046e0       0x56 /usr/local/bin/../lib/gcc/arm-none-eabi/10.2.1/../../../../arm-none-eabi/lib/thumb/v7e-m+fp/hard/libg_nano.a(lib_a-vsnprintf.o)
                0x00000000080046e0                _vsnprintf_r
                0x00000000080046e0                _vsniprintf_r
 *fill*         0x0000000008004736        0x2 
 .text.vsnprintf
                0x0000000008004738       0x1c /usr/local/bin/../lib/gcc/arm-none-eabi/10.2.1/../../../../arm-none-eabi/lib/thumb/v7e-m+fp/hard/libg_nano.a(lib_a-vsnprintf.o)
                0x0000000008004738                vsnprintf
                0x0000000008004738                vsniprintf
 .text.__swbuf_r
                0x0000000008004754       0xa4 /usr/local/bin/../lib/gcc/arm-none-eabi/10.2.1/../../../../arm-none-eabi/lib/thumb/v7e-m+fp/hard/libg_nano.a(lib_a-wbuf.o)
                0x0000000008004754                __swbuf_r
 .text.__swsetup_r
                0x00000000080047f8       0xdc /usr/local/bin/../lib/gcc/arm-none-eabi/10.2.1/../../../../arm-none-eabi/lib/thumb/v7e-m+fp/hard/libg_nano.a(lib_a-wsetup.o)
                0x00000000080047f8                __swsetup_r
 .text.__assert_func
                0x00000000080048d4       0x3c /usr/local/bin/../lib/gcc/arm-none-eabi/10.2.1/../../../../arm-none-eabi/lib/thumb/v7e-m+fp/hard/libg_nano.a(lib_a-assert.o)
                0x00000000080048d4                __assert_func
 .text.quorem   0x0000000008004910      0x116 /usr/local/bin/../lib/gcc/arm-none-eabi/10.2.1/../../../../arm-none-eabi/lib/thumb/v7e-m+fp/hard/libg_nano.a(lib_a-dtoa.o)
 *fill*         0x0000000008004a26        0x2 
 .text._dtoa_r  0x0000000008004a28      0xbdc /usr/local/bin/../lib/gcc/arm-none-eabi/10.2.1/../../../../arm-none-eabi/lib/thumb/v7e-m+fp/hard/libg_nano.a(lib_a-dtoa.o)
                0x0000000008004a28                _dtoa_r
 .text.fprintf  0x0000000008005604       0x24 /usr/local/bin/../lib/gcc/arm-none-eabi/10.2.1/../../../../arm-none-eabi/lib/thumb/v7e-m+fp/hard/libg_nano.a(lib_a-fprintf.o)
                0x0000000008005604                fprintf
                0x0000000008005604                fiprintf
 .text._localeconv_r
                0x0000000008005628        0x8 /usr/local/bin/../lib/gcc/arm-none-eabi/10.2.1/../../../../arm-none-eabi/lib/thumb/v7e-m+fp/hard/libg_nano.a(lib_a-localeconv.o)
                0x0000000008005628                _localeconv_r
 .text.__swhatbuf_r
                0x0000000008005630       0x4a /usr/local/bin/../lib/gcc/arm-none-eabi/10.2.1/../../../../arm-none-eabi/lib/thumb/v7e-m+fp/hard/libg_nano.a(lib_a-makebuf.o)
                0x0000000008005630                __swhatbuf_r
 *fill*         0x000000000800567a        0x2 
 .text.__smakebuf_r
                0x000000000800567c       0x80 /usr/local/bin/../lib/gcc/arm-none-eabi/10.2.1/../../../../arm-none-eabi/lib/thumb/v7e-m+fp/hard/libg_nano.a(lib_a-makebuf.o)
                0x000000000800567c                __smakebuf_r
 .text.malloc   0x00000000080056fc       0x10 /usr/local/bin/../lib/gcc/arm-none-eabi/10.2.1/../../../../arm-none-eabi/lib/thumb/v7e-m+fp/hard/libg_nano.a(lib_a-malloc.o)
                0x00000000080056fc                malloc
 .text.__ascii_mbtowc
                0x000000000800570c       0x24 /usr/local/bin/../lib/gcc/arm-none-eabi/10.2.1/../../../../arm-none-eabi/lib/thumb/v7e-m+fp/hard/libg_nano.a(lib_a-mbtowc_r.o)
                0x000000000800570c                __ascii_mbtowc
 .text.memcpy   0x0000000008005730       0x1c /usr/local/bin/../lib/gcc/arm-none-eabi/10.2.1/../../../../arm-none-eabi/lib/thumb/v7e-m+fp/hard/libg_nano.a(lib_a-memcpy-stub.o)
                0x0000000008005730                memcpy
 .text.__malloc_lock
                0x000000000800574c        0xc /usr/local/bin/../lib/gcc/arm-none-eabi/10.2.1/../../../../arm-none-eabi/lib/thumb/v7e-m+fp/hard/libg_nano.a(lib_a-mlock.o)
                0x000000000800574c                __malloc_lock
 .text.__malloc_unlock
                0x0000000008005758        0xc /usr/local/bin/../lib/gcc/arm-none-eabi/10.2.1/../../../../arm-none-eabi/lib/thumb/v7e-m+fp/hard/libg_nano.a(lib_a-mlock.o)
                0x0000000008005758                __malloc_unlock
 .text._Balloc  0x0000000008005764       0x80 /usr/local/bin/../lib/gcc/arm-none-eabi/10.2.1/../../../../arm-none-eabi/lib/thumb/v7e-m+fp/hard/libg_nano.a(lib_a-mprec.o)
                0x0000000008005764                _Balloc
 .text._Bfree   0x00000000080057e4       0x44 /usr/local/bin/../lib/gcc/arm-none-eabi/10.2.1/../../../../arm-none-eabi/lib/thumb/v7e-m+fp/hard/libg_nano.a(lib_a-mprec.o)
                0x00000000080057e4                _Bfree
 .text.__multadd
                0x0000000008005828       0x8c /usr/local/bin/../lib/gcc/arm-none-eabi/10.2.1/../../../../arm-none-eabi/lib/thumb/v7e-m+fp/hard/libg_nano.a(lib_a-mprec.o)
                0x0000000008005828                __multadd
 .text.__hi0bits
                0x00000000080058b4       0x40 /usr/local/bin/../lib/gcc/arm-none-eabi/10.2.1/../../../../arm-none-eabi/lib/thumb/v7e-m+fp/hard/libg_nano.a(lib_a-mprec.o)
                0x00000000080058b4                __hi0bits
 .text.__lo0bits
                0x00000000080058f4       0x5e /usr/local/bin/../lib/gcc/arm-none-eabi/10.2.1/../../../../arm-none-eabi/lib/thumb/v7e-m+fp/hard/libg_nano.a(lib_a-mprec.o)
                0x00000000080058f4                __lo0bits
 *fill*         0x0000000008005952        0x2 
 .text.__i2b    0x0000000008005954       0x2c /usr/local/bin/../lib/gcc/arm-none-eabi/10.2.1/../../../../arm-none-eabi/lib/thumb/v7e-m+fp/hard/libg_nano.a(lib_a-mprec.o)
                0x0000000008005954                __i2b
 .text.__multiply
                0x0000000008005980      0x154 /usr/local/bin/../lib/gcc/arm-none-eabi/10.2.1/../../../../arm-none-eabi/lib/thumb/v7e-m+fp/hard/libg_nano.a(lib_a-mprec.o)
                0x0000000008005980                __multiply
 .text.__pow5mult
                0x0000000008005ad4       0xb4 /usr/local/bin/../lib/gcc/arm-none-eabi/10.2.1/../../../../arm-none-eabi/lib/thumb/v7e-m+fp/hard/libg_nano.a(lib_a-mprec.o)
                0x0000000008005ad4                __pow5mult
 .text.__lshift
                0x0000000008005b88       0xe0 /usr/local/bin/../lib/gcc/arm-none-eabi/10.2.1/../../../../arm-none-eabi/lib/thumb/v7e-m+fp/hard/libg_nano.a(lib_a-mprec.o)
                0x0000000008005b88                __lshift
 .text.__mcmp   0x0000000008005c68       0x38 /usr/local/bin/../lib/gcc/arm-none-eabi/10.2.1/../../../../arm-none-eabi/lib/thumb/v7e-m+fp/hard/libg_nano.a(lib_a-mprec.o)
                0x0000000008005c68                __mcmp
 .text.__mdiff  0x0000000008005ca0      0x114 /usr/local/bin/../lib/gcc/arm-none-eabi/10.2.1/../../../../arm-none-eabi/lib/thumb/v7e-m+fp/hard/libg_nano.a(lib_a-mprec.o)
                0x0000000008005ca0                __mdiff
 .text.__d2b    0x0000000008005db4       0xb8 /usr/local/bin/../lib/gcc/arm-none-eabi/10.2.1/../../../../arm-none-eabi/lib/thumb/v7e-m+fp/hard/libg_nano.a(lib_a-mprec.o)
                0x0000000008005db4                __d2b
 .text._calloc_r
                0x0000000008005e6c       0x1e /usr/local/bin/../lib/gcc/arm-none-eabi/10.2.1/../../../../arm-none-eabi/lib/thumb/v7e-m+fp/hard/libg_nano.a(lib_a-nano-callocr.o)
                0x0000000008005e6c                _calloc_r
 .text.__ssputs_r
                0x0000000008005e8a       0xb6 /usr/local/bin/../lib/gcc/arm-none-eabi/10.2.1/../../../../arm-none-eabi/lib/thumb/v7e-m+fp/hard/libg_nano.a(lib_a-nano-svfprintf.o)
                0x0000000008005e8a                __ssputs_r
 .text._svfprintf_r
                0x0000000008005f40      0x200 /usr/local/bin/../lib/gcc/arm-none-eabi/10.2.1/../../../../arm-none-eabi/lib/thumb/v7e-m+fp/hard/libg_nano.a(lib_a-nano-svfprintf.o)
                0x0000000008005f40                _svfprintf_r
                0x0000000008005f40                _svfiprintf_r
 .text.__sfputc_r
                0x0000000008006140       0x2e /usr/local/bin/../lib/gcc/arm-none-eabi/10.2.1/../../../../arm-none-eabi/lib/thumb/v7e-m+fp/hard/libg_nano.a(lib_a-nano-vfprintf.o)
 .text.__sfputs_r
                0x000000000800616e       0x24 /usr/local/bin/../lib/gcc/arm-none-eabi/10.2.1/../../../../arm-none-eabi/lib/thumb/v7e-m+fp/hard/libg_nano.a(lib_a-nano-vfprintf.o)
                0x000000000800616e                __sfputs_r
 *fill*         0x0000000008006192        0x2 
 .text._vfprintf_r
                0x0000000008006194      0x260 /usr/local/bin/../lib/gcc/arm-none-eabi/10.2.1/../../../../arm-none-eabi/lib/thumb/v7e-m+fp/hard/libg_nano.a(lib_a-nano-vfprintf.o)
                0x0000000008006194                _vfiprintf_r
                0x0000000008006194                _vfprintf_r
 .text._putc_r  0x00000000080063f4       0x90 /usr/local/bin/../lib/gcc/arm-none-eabi/10.2.1/../../../../arm-none-eabi/lib/thumb/v7e-m+fp/hard/libg_nano.a(lib_a-putc.o)
                0x00000000080063f4                _putc_r
 .text.__ascii_wctomb
                0x0000000008006484       0x1a /usr/local/bin/../lib/gcc/arm-none-eabi/10.2.1/../../../../arm-none-eabi/lib/thumb/v7e-m+fp/hard/libg_nano.a(lib_a-wctomb_r.o)
                0x0000000008006484                __ascii_wctomb
 .text.abort    0x000000000800649e        0xe /usr/local/bin/../lib/gcc/arm-none-eabi/10.2.1/../../../../arm-none-eabi/lib/thumb/v7e-m+fp/hard/libg_nano.a(lib_a-abort.o)
                0x000000000800649e                abort
 .text.memmove  0x00000000080064ac       0x34 /usr/local/bin/../lib/gcc/arm-none-eabi/10.2.1/../../../../arm-none-eabi/lib/thumb/v7e-m+fp/hard/libg_nano.a(lib_a-memmove.o)
                0x00000000080064ac                memmove
 .text._realloc_r
                0x00000000080064e0       0x4c /usr/local/bin/../lib/gcc/arm-none-eabi/10.2.1/../../../../arm-none-eabi/lib/thumb/v7e-m+fp/hard/libg_nano.a(lib_a-nano-reallocr.o)
                0x00000000080064e0                _realloc_r
 .text._raise_r
                0x000000000800652c       0x50 /usr/local/bin/../lib/gcc/arm-none-eabi/10.2.1/../../../../arm-none-eabi/lib/thumb/v7e-m+fp/hard/libg_nano.a(lib_a-signal.o)
                0x000000000800652c                _raise_r
 .text.raise    0x000000000800657c       0x10 /usr/local/bin/../lib/gcc/arm-none-eabi/10.2.1/../../../../arm-none-eabi/lib/thumb/v7e-m+fp/hard/libg_nano.a(lib_a-signal.o)
                0x000000000800657c                raise
 .text._kill_r  0x000000000800658c       0x24 /usr/local/bin/../lib/gcc/arm-none-eabi/10.2.1/../../../../arm-none-eabi/lib/thumb/v7e-m+fp/hard/libg_nano.a(lib_a-signalr.o)
                0x000000000800658c                _kill_r
 .text._getpid_r
                0x00000000080065b0        0x4 /usr/local/bin/../lib/gcc/arm-none-eabi/10.2.1/../../../../arm-none-eabi/lib/thumb/v7e-m+fp/hard/libg_nano.a(lib_a-signalr.o)
                0x00000000080065b0                _getpid_r
 .text._malloc_usable_size_r
                0x00000000080065b4       0x10 /usr/local/bin/../lib/gcc/arm-none-eabi/10.2.1/../../../../arm-none-eabi/lib/thumb/v7e-m+fp/hard/libg_nano.a(lib_a-nano-msizer.o)
                0x00000000080065b4                _malloc_usable_size_r
 *(.glue_7)
 .glue_7        0x00000000080065c4        0x0 linker stubs
 *(.glue_7t)
 .glue_7t       0x00000000080065c4        0x0 linker stubs
 *(.eh_frame)
 .eh_frame      0x00000000080065c4        0x0 /usr/local/bin/../lib/gcc/arm-none-eabi/10.2.1/thumb/v7e-m+fp/hard/crtbegin.o
 *(.init)
 .init          0x00000000080065c4        0x4 /usr/local/bin/../lib/gcc/arm-none-eabi/10.2.1/thumb/v7e-m+fp/hard/crti.o
                0x00000000080065c4                _init
 .init          0x00000000080065c8        0x8 /usr/local/bin/../lib/gcc/arm-none-eabi/10.2.1/thumb/v7e-m+fp/hard/crtn.o
 *(.fini)
 .fini          0x00000000080065d0        0x4 /usr/local/bin/../lib/gcc/arm-none-eabi/10.2.1/thumb/v7e-m+fp/hard/crti.o
                0x00000000080065d0                _fini
 .fini          0x00000000080065d4        0x8 /usr/local/bin/../lib/gcc/arm-none-eabi/10.2.1/thumb/v7e-m+fp/hard/crtn.o
                0x00000000080065dc                . = ALIGN (0x4)
                0x00000000080065dc                _etext = .

.vfp11_veneer   0x00000000080065dc        0x0
 .vfp11_veneer  0x00000000080065dc        0x0 linker stubs

.v4_bx          0x00000000080065dc        0x0
 .v4_bx         0x00000000080065dc        0x0 linker stubs

.iplt           0x00000000080065dc        0x0
 .iplt          0x00000000080065dc        0x0 /usr/local/bin/../lib/gcc/arm-none-eabi/10.2.1/thumb/v7e-m+fp/hard/crtbegin.o

.rodata         0x00000000080065e0     0xc660
                0x00000000080065e0                . = ALIGN (0x4)
 *(.rodata)
 .rodata        0x00000000080065e0      0x440 build/monitor/decoder/STM32F411.o
 *(.rodata*)
 .rodata.CmdLed.str1.1
                0x0000000008006a20       0x5a build/my_main.o
 .rodata.str1.1
                0x0000000008006a7a       0x1c build/my_main.o
                                         0x20 (size before relaxing)
 .rodata.CmdTest.str1.1
                0x0000000008006a96       0x47 build/mytest.o
 .rodata.str1.1
                0x0000000008006add       0x16 build/mytest.o
 .rodata.printProgress.str1.1
                0x0000000008006af3       0x18 build/adc_example.o
                                         0x19 (size before relaxing)
 .rodata.ADCInit.str1.1
                0x0000000008006b0b       0x27 build/adc_example.o
 .rodata.getReadingFromAdc.str1.1
                0x0000000008006b32       0xaa build/adc_example.o
 .rodata.AdcEvent.str1.1
                0x0000000008006bdc       0x33 build/adc_example.o
 .rodata.str1.1
                0x0000000008006c0f       0x61 build/adc_example.o
 .rodata.str1.1
                0x0000000008006c70     0x278b build/monitor/decoder/STM32F411.o
                                       0x2831 (size before relaxing)
 *fill*         0x00000000080093fb        0x1 
 .rodata.ADC1_CR1_fields
                0x00000000080093fc       0x70 build/monitor/decoder/STM32F411.o
                0x00000000080093fc                ADC1_CR1_fields
 .rodata.ADC1_CR2_fields
                0x000000000800946c       0x60 build/monitor/decoder/STM32F411.o
                0x000000000800946c                ADC1_CR2_fields
 .rodata.ADC1_DR_fields
                0x00000000080094cc        0x8 build/monitor/decoder/STM32F411.o
                0x00000000080094cc                ADC1_DR_fields
 .rodata.ADC1_HTR_fields
                0x00000000080094d4        0x8 build/monitor/decoder/STM32F411.o
                0x00000000080094d4                ADC1_HTR_fields
 .rodata.ADC1_JDR1_fields
                0x00000000080094dc        0x8 build/monitor/decoder/STM32F411.o
                0x00000000080094dc                ADC1_JDR1_fields
 .rodata.ADC1_JDR2_fields
                0x00000000080094e4        0x8 build/monitor/decoder/STM32F411.o
                0x00000000080094e4                ADC1_JDR2_fields
 .rodata.ADC1_JDR3_fields
                0x00000000080094ec        0x8 build/monitor/decoder/STM32F411.o
                0x00000000080094ec                ADC1_JDR3_fields
 .rodata.ADC1_JDR4_fields
                0x00000000080094f4        0x8 build/monitor/decoder/STM32F411.o
                0x00000000080094f4                ADC1_JDR4_fields
 .rodata.ADC1_JOFR1_fields
                0x00000000080094fc        0x8 build/monitor/decoder/STM32F411.o
                0x00000000080094fc                ADC1_JOFR1_fields
 .rodata.ADC1_JOFR2_fields
                0x0000000008009504        0x8 build/monitor/decoder/STM32F411.o
                0x0000000008009504                ADC1_JOFR2_fields
 .rodata.ADC1_JOFR3_fields
                0x000000000800950c        0x8 build/monitor/decoder/STM32F411.o
                0x000000000800950c                ADC1_JOFR3_fields
 .rodata.ADC1_JOFR4_fields
                0x0000000008009514        0x8 build/monitor/decoder/STM32F411.o
                0x0000000008009514                ADC1_JOFR4_fields
 .rodata.ADC1_JSQR_fields
                0x000000000800951c       0x28 build/monitor/decoder/STM32F411.o
                0x000000000800951c                ADC1_JSQR_fields
 .rodata.ADC1_LTR_fields
                0x0000000008009544        0x8 build/monitor/decoder/STM32F411.o
                0x0000000008009544                ADC1_LTR_fields
 .rodata.ADC1_SMPR1_fields
                0x000000000800954c        0x8 build/monitor/decoder/STM32F411.o
                0x000000000800954c                ADC1_SMPR1_fields
 .rodata.ADC1_SMPR2_fields
                0x0000000008009554        0x8 build/monitor/decoder/STM32F411.o
                0x0000000008009554                ADC1_SMPR2_fields
 .rodata.ADC1_SQR1_fields
                0x000000000800955c       0x28 build/monitor/decoder/STM32F411.o
                0x000000000800955c                ADC1_SQR1_fields
 .rodata.ADC1_SQR2_fields
                0x0000000008009584       0x30 build/monitor/decoder/STM32F411.o
                0x0000000008009584                ADC1_SQR2_fields
 .rodata.ADC1_SQR3_fields
                0x00000000080095b4       0x30 build/monitor/decoder/STM32F411.o
                0x00000000080095b4                ADC1_SQR3_fields
 .rodata.ADC1_SR_fields
                0x00000000080095e4       0x30 build/monitor/decoder/STM32F411.o
                0x00000000080095e4                ADC1_SR_fields
 .rodata.ADC1_registers
                0x0000000008009614      0x140 build/monitor/decoder/STM32F411.o
                0x0000000008009614                ADC1_registers
 .rodata.ADC_Common_CCR_fields
                0x0000000008009754       0x30 build/monitor/decoder/STM32F411.o
                0x0000000008009754                ADC_Common_CCR_fields
 .rodata.ADC_Common_CSR_fields
                0x0000000008009784       0x90 build/monitor/decoder/STM32F411.o
                0x0000000008009784                ADC_Common_CSR_fields
 .rodata.ADC_Common_registers
                0x0000000008009814       0x20 build/monitor/decoder/STM32F411.o
                0x0000000008009814                ADC_Common_registers
 .rodata.CRC_CR_fields
                0x0000000008009834        0x8 build/monitor/decoder/STM32F411.o
                0x0000000008009834                CRC_CR_fields
 .rodata.CRC_DR_fields
                0x000000000800983c        0x8 build/monitor/decoder/STM32F411.o
                0x000000000800983c                CRC_DR_fields
 .rodata.CRC_IDR_fields
                0x0000000008009844        0x8 build/monitor/decoder/STM32F411.o
                0x0000000008009844                CRC_IDR_fields
 .rodata.CRC_registers
                0x000000000800984c       0x30 build/monitor/decoder/STM32F411.o
                0x000000000800984c                CRC_registers
 .rodata.DBG_DBGMCU_APB1_FZ_fields
                0x000000000800987c       0x50 build/monitor/decoder/STM32F411.o
                0x000000000800987c                DBG_DBGMCU_APB1_FZ_fields
 .rodata.DBG_DBGMCU_APB2_FZ_fields
                0x00000000080098cc       0x20 build/monitor/decoder/STM32F411.o
                0x00000000080098cc                DBG_DBGMCU_APB2_FZ_fields
 .rodata.DBG_DBGMCU_CR_fields
                0x00000000080098ec       0x28 build/monitor/decoder/STM32F411.o
                0x00000000080098ec                DBG_DBGMCU_CR_fields
 .rodata.DBG_DBGMCU_IDCODE_fields
                0x0000000008009914       0x10 build/monitor/decoder/STM32F411.o
                0x0000000008009914                DBG_DBGMCU_IDCODE_fields
 .rodata.DBG_registers
                0x0000000008009924       0x40 build/monitor/decoder/STM32F411.o
                0x0000000008009924                DBG_registers
 .rodata.DMA2_HIFCR_fields
                0x0000000008009964       0xa0 build/monitor/decoder/STM32F411.o
                0x0000000008009964                DMA2_HIFCR_fields
 .rodata.DMA2_HISR_fields
                0x0000000008009a04       0xa0 build/monitor/decoder/STM32F411.o
                0x0000000008009a04                DMA2_HISR_fields
 .rodata.DMA2_LIFCR_fields
                0x0000000008009aa4       0xa0 build/monitor/decoder/STM32F411.o
                0x0000000008009aa4                DMA2_LIFCR_fields
 .rodata.DMA2_LISR_fields
                0x0000000008009b44       0xa0 build/monitor/decoder/STM32F411.o
                0x0000000008009b44                DMA2_LISR_fields
 .rodata.DMA2_S0CR_fields
                0x0000000008009be4       0x98 build/monitor/decoder/STM32F411.o
                0x0000000008009be4                DMA2_S0CR_fields
 .rodata.DMA2_S0FCR_fields
                0x0000000008009c7c       0x20 build/monitor/decoder/STM32F411.o
                0x0000000008009c7c                DMA2_S0FCR_fields
 .rodata.DMA2_S0M0AR_fields
                0x0000000008009c9c        0x8 build/monitor/decoder/STM32F411.o
                0x0000000008009c9c                DMA2_S0M0AR_fields
 .rodata.DMA2_S0M1AR_fields
                0x0000000008009ca4        0x8 build/monitor/decoder/STM32F411.o
                0x0000000008009ca4                DMA2_S0M1AR_fields
 .rodata.DMA2_S0NDTR_fields
                0x0000000008009cac        0x8 build/monitor/decoder/STM32F411.o
                0x0000000008009cac                DMA2_S0NDTR_fields
 .rodata.DMA2_S0PAR_fields
                0x0000000008009cb4        0x8 build/monitor/decoder/STM32F411.o
                0x0000000008009cb4                DMA2_S0PAR_fields
 .rodata.DMA2_S1CR_fields
                0x0000000008009cbc       0xa0 build/monitor/decoder/STM32F411.o
                0x0000000008009cbc                DMA2_S1CR_fields
 .rodata.DMA2_S1FCR_fields
                0x0000000008009d5c       0x20 build/monitor/decoder/STM32F411.o
                0x0000000008009d5c                DMA2_S1FCR_fields
 .rodata.DMA2_S1M0AR_fields
                0x0000000008009d7c        0x8 build/monitor/decoder/STM32F411.o
                0x0000000008009d7c                DMA2_S1M0AR_fields
 .rodata.DMA2_S1M1AR_fields
                0x0000000008009d84        0x8 build/monitor/decoder/STM32F411.o
                0x0000000008009d84                DMA2_S1M1AR_fields
 .rodata.DMA2_S1NDTR_fields
                0x0000000008009d8c        0x8 build/monitor/decoder/STM32F411.o
                0x0000000008009d8c                DMA2_S1NDTR_fields
 .rodata.DMA2_S1PAR_fields
                0x0000000008009d94        0x8 build/monitor/decoder/STM32F411.o
                0x0000000008009d94                DMA2_S1PAR_fields
 .rodata.DMA2_S2CR_fields
                0x0000000008009d9c       0xa0 build/monitor/decoder/STM32F411.o
                0x0000000008009d9c                DMA2_S2CR_fields
 .rodata.DMA2_S2FCR_fields
                0x0000000008009e3c       0x20 build/monitor/decoder/STM32F411.o
                0x0000000008009e3c                DMA2_S2FCR_fields
 .rodata.DMA2_S2M0AR_fields
                0x0000000008009e5c        0x8 build/monitor/decoder/STM32F411.o
                0x0000000008009e5c                DMA2_S2M0AR_fields
 .rodata.DMA2_S2M1AR_fields
                0x0000000008009e64        0x8 build/monitor/decoder/STM32F411.o
                0x0000000008009e64                DMA2_S2M1AR_fields
 .rodata.DMA2_S2NDTR_fields
                0x0000000008009e6c        0x8 build/monitor/decoder/STM32F411.o
                0x0000000008009e6c                DMA2_S2NDTR_fields
 .rodata.DMA2_S2PAR_fields
                0x0000000008009e74        0x8 build/monitor/decoder/STM32F411.o
                0x0000000008009e74                DMA2_S2PAR_fields
 .rodata.DMA2_S3CR_fields
                0x0000000008009e7c       0xa0 build/monitor/decoder/STM32F411.o
                0x0000000008009e7c                DMA2_S3CR_fields
 .rodata.DMA2_S3FCR_fields
                0x0000000008009f1c       0x20 build/monitor/decoder/STM32F411.o
                0x0000000008009f1c                DMA2_S3FCR_fields
 .rodata.DMA2_S3M0AR_fields
                0x0000000008009f3c        0x8 build/monitor/decoder/STM32F411.o
                0x0000000008009f3c                DMA2_S3M0AR_fields
 .rodata.DMA2_S3M1AR_fields
                0x0000000008009f44        0x8 build/monitor/decoder/STM32F411.o
                0x0000000008009f44                DMA2_S3M1AR_fields
 .rodata.DMA2_S3NDTR_fields
                0x0000000008009f4c        0x8 build/monitor/decoder/STM32F411.o
                0x0000000008009f4c                DMA2_S3NDTR_fields
 .rodata.DMA2_S3PAR_fields
                0x0000000008009f54        0x8 build/monitor/decoder/STM32F411.o
                0x0000000008009f54                DMA2_S3PAR_fields
 .rodata.DMA2_S4CR_fields
                0x0000000008009f5c       0xa0 build/monitor/decoder/STM32F411.o
                0x0000000008009f5c                DMA2_S4CR_fields
 .rodata.DMA2_S4FCR_fields
                0x0000000008009ffc       0x20 build/monitor/decoder/STM32F411.o
                0x0000000008009ffc                DMA2_S4FCR_fields
 .rodata.DMA2_S4M0AR_fields
                0x000000000800a01c        0x8 build/monitor/decoder/STM32F411.o
                0x000000000800a01c                DMA2_S4M0AR_fields
 .rodata.DMA2_S4M1AR_fields
                0x000000000800a024        0x8 build/monitor/decoder/STM32F411.o
                0x000000000800a024                DMA2_S4M1AR_fields
 .rodata.DMA2_S4NDTR_fields
                0x000000000800a02c        0x8 build/monitor/decoder/STM32F411.o
                0x000000000800a02c                DMA2_S4NDTR_fields
 .rodata.DMA2_S4PAR_fields
                0x000000000800a034        0x8 build/monitor/decoder/STM32F411.o
                0x000000000800a034                DMA2_S4PAR_fields
 .rodata.DMA2_S5CR_fields
                0x000000000800a03c       0xa0 build/monitor/decoder/STM32F411.o
                0x000000000800a03c                DMA2_S5CR_fields
 .rodata.DMA2_S5FCR_fields
                0x000000000800a0dc       0x20 build/monitor/decoder/STM32F411.o
                0x000000000800a0dc                DMA2_S5FCR_fields
 .rodata.DMA2_S5M0AR_fields
                0x000000000800a0fc        0x8 build/monitor/decoder/STM32F411.o
                0x000000000800a0fc                DMA2_S5M0AR_fields
 .rodata.DMA2_S5M1AR_fields
                0x000000000800a104        0x8 build/monitor/decoder/STM32F411.o
                0x000000000800a104                DMA2_S5M1AR_fields
 .rodata.DMA2_S5NDTR_fields
                0x000000000800a10c        0x8 build/monitor/decoder/STM32F411.o
                0x000000000800a10c                DMA2_S5NDTR_fields
 .rodata.DMA2_S5PAR_fields
                0x000000000800a114        0x8 build/monitor/decoder/STM32F411.o
                0x000000000800a114                DMA2_S5PAR_fields
 .rodata.DMA2_S6CR_fields
                0x000000000800a11c       0xa0 build/monitor/decoder/STM32F411.o
                0x000000000800a11c                DMA2_S6CR_fields
 .rodata.DMA2_S6FCR_fields
                0x000000000800a1bc       0x20 build/monitor/decoder/STM32F411.o
                0x000000000800a1bc                DMA2_S6FCR_fields
 .rodata.DMA2_S6M0AR_fields
                0x000000000800a1dc        0x8 build/monitor/decoder/STM32F411.o
                0x000000000800a1dc                DMA2_S6M0AR_fields
 .rodata.DMA2_S6M1AR_fields
                0x000000000800a1e4        0x8 build/monitor/decoder/STM32F411.o
                0x000000000800a1e4                DMA2_S6M1AR_fields
 .rodata.DMA2_S6NDTR_fields
                0x000000000800a1ec        0x8 build/monitor/decoder/STM32F411.o
                0x000000000800a1ec                DMA2_S6NDTR_fields
 .rodata.DMA2_S6PAR_fields
                0x000000000800a1f4        0x8 build/monitor/decoder/STM32F411.o
                0x000000000800a1f4                DMA2_S6PAR_fields
 .rodata.DMA2_S7CR_fields
                0x000000000800a1fc       0xa0 build/monitor/decoder/STM32F411.o
                0x000000000800a1fc                DMA2_S7CR_fields
 .rodata.DMA2_S7FCR_fields
                0x000000000800a29c       0x20 build/monitor/decoder/STM32F411.o
                0x000000000800a29c                DMA2_S7FCR_fields
 .rodata.DMA2_S7M0AR_fields
                0x000000000800a2bc        0x8 build/monitor/decoder/STM32F411.o
                0x000000000800a2bc                DMA2_S7M0AR_fields
 .rodata.DMA2_S7M1AR_fields
                0x000000000800a2c4        0x8 build/monitor/decoder/STM32F411.o
                0x000000000800a2c4                DMA2_S7M1AR_fields
 .rodata.DMA2_S7NDTR_fields
                0x000000000800a2cc        0x8 build/monitor/decoder/STM32F411.o
                0x000000000800a2cc                DMA2_S7NDTR_fields
 .rodata.DMA2_S7PAR_fields
                0x000000000800a2d4        0x8 build/monitor/decoder/STM32F411.o
                0x000000000800a2d4                DMA2_S7PAR_fields
 .rodata.DMA2_registers
                0x000000000800a2dc      0x340 build/monitor/decoder/STM32F411.o
                0x000000000800a2dc                DMA2_registers
 .rodata.EXTI_EMR_fields
                0x000000000800a61c       0xb8 build/monitor/decoder/STM32F411.o
                0x000000000800a61c                EXTI_EMR_fields
 .rodata.EXTI_FTSR_fields
                0x000000000800a6d4       0xb8 build/monitor/decoder/STM32F411.o
                0x000000000800a6d4                EXTI_FTSR_fields
 .rodata.EXTI_IMR_fields
                0x000000000800a78c       0xb8 build/monitor/decoder/STM32F411.o
                0x000000000800a78c                EXTI_IMR_fields
 .rodata.EXTI_PR_fields
                0x000000000800a844       0xb8 build/monitor/decoder/STM32F411.o
                0x000000000800a844                EXTI_PR_fields
 .rodata.EXTI_RTSR_fields
                0x000000000800a8fc       0xb8 build/monitor/decoder/STM32F411.o
                0x000000000800a8fc                EXTI_RTSR_fields
 .rodata.EXTI_SWIER_fields
                0x000000000800a9b4       0xb8 build/monitor/decoder/STM32F411.o
                0x000000000800a9b4                EXTI_SWIER_fields
 .rodata.EXTI_registers
                0x000000000800aa6c       0x60 build/monitor/decoder/STM32F411.o
                0x000000000800aa6c                EXTI_registers
 .rodata.FLASH_ACR_fields
                0x000000000800aacc       0x30 build/monitor/decoder/STM32F411.o
                0x000000000800aacc                FLASH_ACR_fields
 .rodata.FLASH_CR_fields
                0x000000000800aafc       0x48 build/monitor/decoder/STM32F411.o
                0x000000000800aafc                FLASH_CR_fields
 .rodata.FLASH_KEYR_fields
                0x000000000800ab44        0x8 build/monitor/decoder/STM32F411.o
                0x000000000800ab44                FLASH_KEYR_fields
 .rodata.FLASH_OPTCR_fields
                0x000000000800ab4c       0x40 build/monitor/decoder/STM32F411.o
                0x000000000800ab4c                FLASH_OPTCR_fields
 .rodata.FLASH_OPTKEYR_fields
                0x000000000800ab8c        0x8 build/monitor/decoder/STM32F411.o
                0x000000000800ab8c                FLASH_OPTKEYR_fields
 .rodata.FLASH_SR_fields
                0x000000000800ab94       0x38 build/monitor/decoder/STM32F411.o
                0x000000000800ab94                FLASH_SR_fields
 .rodata.FLASH_registers
                0x000000000800abcc       0x60 build/monitor/decoder/STM32F411.o
                0x000000000800abcc                FLASH_registers
 .rodata.FPU_CPACR_CPACR_fields
                0x000000000800ac2c        0x8 build/monitor/decoder/STM32F411.o
                0x000000000800ac2c                FPU_CPACR_CPACR_fields
 .rodata.FPU_CPACR_registers
                0x000000000800ac34       0x10 build/monitor/decoder/STM32F411.o
                0x000000000800ac34                FPU_CPACR_registers
 .rodata.FPU_FPCAR_fields
                0x000000000800ac44        0x8 build/monitor/decoder/STM32F411.o
                0x000000000800ac44                FPU_FPCAR_fields
 .rodata.FPU_FPCCR_fields
                0x000000000800ac4c       0x48 build/monitor/decoder/STM32F411.o
                0x000000000800ac4c                FPU_FPCCR_fields
 .rodata.FPU_FPSCR_fields
                0x000000000800ac94       0x70 build/monitor/decoder/STM32F411.o
                0x000000000800ac94                FPU_FPSCR_fields
 .rodata.FPU_registers
                0x000000000800ad04       0x30 build/monitor/decoder/STM32F411.o
                0x000000000800ad04                FPU_registers
 .rodata.GPIOA_AFRH_fields
                0x000000000800ad34       0x40 build/monitor/decoder/STM32F411.o
                0x000000000800ad34                GPIOA_AFRH_fields
 .rodata.GPIOA_AFRL_fields
                0x000000000800ad74       0x40 build/monitor/decoder/STM32F411.o
                0x000000000800ad74                GPIOA_AFRL_fields
 .rodata.GPIOA_BSRR_fields
                0x000000000800adb4      0x100 build/monitor/decoder/STM32F411.o
                0x000000000800adb4                GPIOA_BSRR_fields
 .rodata.GPIOA_IDR_fields
                0x000000000800aeb4       0x80 build/monitor/decoder/STM32F411.o
                0x000000000800aeb4                GPIOA_IDR_fields
 .rodata.GPIOA_LCKR_fields
                0x000000000800af34       0x88 build/monitor/decoder/STM32F411.o
                0x000000000800af34                GPIOA_LCKR_fields
 .rodata.GPIOA_MODER_fields
                0x000000000800afbc       0x80 build/monitor/decoder/STM32F411.o
                0x000000000800afbc                GPIOA_MODER_fields
 .rodata.GPIOA_ODR_fields
                0x000000000800b03c       0x80 build/monitor/decoder/STM32F411.o
                0x000000000800b03c                GPIOA_ODR_fields
 .rodata.GPIOA_OSPEEDR_fields
                0x000000000800b0bc       0x80 build/monitor/decoder/STM32F411.o
                0x000000000800b0bc                GPIOA_OSPEEDR_fields
 .rodata.GPIOA_OTYPER_fields
                0x000000000800b13c       0x80 build/monitor/decoder/STM32F411.o
                0x000000000800b13c                GPIOA_OTYPER_fields
 .rodata.GPIOA_PUPDR_fields
                0x000000000800b1bc       0x80 build/monitor/decoder/STM32F411.o
                0x000000000800b1bc                GPIOA_PUPDR_fields
 .rodata.GPIOA_registers
                0x000000000800b23c       0xa0 build/monitor/decoder/STM32F411.o
                0x000000000800b23c                GPIOA_registers
 .rodata.GPIOB_AFRH_fields
                0x000000000800b2dc       0x40 build/monitor/decoder/STM32F411.o
                0x000000000800b2dc                GPIOB_AFRH_fields
 .rodata.GPIOB_AFRL_fields
                0x000000000800b31c       0x40 build/monitor/decoder/STM32F411.o
                0x000000000800b31c                GPIOB_AFRL_fields
 .rodata.GPIOB_BSRR_fields
                0x000000000800b35c      0x100 build/monitor/decoder/STM32F411.o
                0x000000000800b35c                GPIOB_BSRR_fields
 .rodata.GPIOB_IDR_fields
                0x000000000800b45c       0x80 build/monitor/decoder/STM32F411.o
                0x000000000800b45c                GPIOB_IDR_fields
 .rodata.GPIOB_LCKR_fields
                0x000000000800b4dc       0x88 build/monitor/decoder/STM32F411.o
                0x000000000800b4dc                GPIOB_LCKR_fields
 .rodata.GPIOB_MODER_fields
                0x000000000800b564       0x80 build/monitor/decoder/STM32F411.o
                0x000000000800b564                GPIOB_MODER_fields
 .rodata.GPIOB_ODR_fields
                0x000000000800b5e4       0x80 build/monitor/decoder/STM32F411.o
                0x000000000800b5e4                GPIOB_ODR_fields
 .rodata.GPIOB_OSPEEDR_fields
                0x000000000800b664       0x80 build/monitor/decoder/STM32F411.o
                0x000000000800b664                GPIOB_OSPEEDR_fields
 .rodata.GPIOB_OTYPER_fields
                0x000000000800b6e4       0x80 build/monitor/decoder/STM32F411.o
                0x000000000800b6e4                GPIOB_OTYPER_fields
 .rodata.GPIOB_PUPDR_fields
                0x000000000800b764       0x80 build/monitor/decoder/STM32F411.o
                0x000000000800b764                GPIOB_PUPDR_fields
 .rodata.GPIOB_registers
                0x000000000800b7e4       0xa0 build/monitor/decoder/STM32F411.o
                0x000000000800b7e4                GPIOB_registers
 .rodata.GPIOH_AFRH_fields
                0x000000000800b884       0x40 build/monitor/decoder/STM32F411.o
                0x000000000800b884                GPIOH_AFRH_fields
 .rodata.GPIOH_AFRL_fields
                0x000000000800b8c4       0x40 build/monitor/decoder/STM32F411.o
                0x000000000800b8c4                GPIOH_AFRL_fields
 .rodata.GPIOH_BSRR_fields
                0x000000000800b904      0x100 build/monitor/decoder/STM32F411.o
                0x000000000800b904                GPIOH_BSRR_fields
 .rodata.GPIOH_IDR_fields
                0x000000000800ba04       0x80 build/monitor/decoder/STM32F411.o
                0x000000000800ba04                GPIOH_IDR_fields
 .rodata.GPIOH_LCKR_fields
                0x000000000800ba84       0x88 build/monitor/decoder/STM32F411.o
                0x000000000800ba84                GPIOH_LCKR_fields
 .rodata.GPIOH_MODER_fields
                0x000000000800bb0c       0x80 build/monitor/decoder/STM32F411.o
                0x000000000800bb0c                GPIOH_MODER_fields
 .rodata.GPIOH_ODR_fields
                0x000000000800bb8c       0x80 build/monitor/decoder/STM32F411.o
                0x000000000800bb8c                GPIOH_ODR_fields
 .rodata.GPIOH_OSPEEDR_fields
                0x000000000800bc0c       0x80 build/monitor/decoder/STM32F411.o
                0x000000000800bc0c                GPIOH_OSPEEDR_fields
 .rodata.GPIOH_OTYPER_fields
                0x000000000800bc8c       0x80 build/monitor/decoder/STM32F411.o
                0x000000000800bc8c                GPIOH_OTYPER_fields
 .rodata.GPIOH_PUPDR_fields
                0x000000000800bd0c       0x80 build/monitor/decoder/STM32F411.o
                0x000000000800bd0c                GPIOH_PUPDR_fields
 .rodata.GPIOH_registers
                0x000000000800bd8c       0xa0 build/monitor/decoder/STM32F411.o
                0x000000000800bd8c                GPIOH_registers
 .rodata.I2C3_CCR_fields
                0x000000000800be2c       0x18 build/monitor/decoder/STM32F411.o
                0x000000000800be2c                I2C3_CCR_fields
 .rodata.I2C3_CR1_fields
                0x000000000800be44       0x70 build/monitor/decoder/STM32F411.o
                0x000000000800be44                I2C3_CR1_fields
 .rodata.I2C3_CR2_fields
                0x000000000800beb4       0x30 build/monitor/decoder/STM32F411.o
                0x000000000800beb4                I2C3_CR2_fields
 .rodata.I2C3_DR_fields
                0x000000000800bee4        0x8 build/monitor/decoder/STM32F411.o
                0x000000000800bee4                I2C3_DR_fields
 .rodata.I2C3_OAR1_fields
                0x000000000800beec       0x20 build/monitor/decoder/STM32F411.o
                0x000000000800beec                I2C3_OAR1_fields
 .rodata.I2C3_OAR2_fields
                0x000000000800bf0c       0x10 build/monitor/decoder/STM32F411.o
                0x000000000800bf0c                I2C3_OAR2_fields
 .rodata.I2C3_SR1_fields
                0x000000000800bf1c       0x70 build/monitor/decoder/STM32F411.o
                0x000000000800bf1c                I2C3_SR1_fields
 .rodata.I2C3_SR2_fields
                0x000000000800bf8c       0x40 build/monitor/decoder/STM32F411.o
                0x000000000800bf8c                I2C3_SR2_fields
 .rodata.I2C3_TRISE_fields
                0x000000000800bfcc        0x8 build/monitor/decoder/STM32F411.o
                0x000000000800bfcc                I2C3_TRISE_fields
 .rodata.I2C3_registers
                0x000000000800bfd4       0x90 build/monitor/decoder/STM32F411.o
                0x000000000800bfd4                I2C3_registers
 .rodata.I2S2ext_CR1_fields
                0x000000000800c064       0x70 build/monitor/decoder/STM32F411.o
                0x000000000800c064                I2S2ext_CR1_fields
 .rodata.I2S2ext_CR2_fields
                0x000000000800c0d4       0x38 build/monitor/decoder/STM32F411.o
                0x000000000800c0d4                I2S2ext_CR2_fields
 .rodata.I2S2ext_CRCPR_fields
                0x000000000800c10c        0x8 build/monitor/decoder/STM32F411.o
                0x000000000800c10c                I2S2ext_CRCPR_fields
 .rodata.I2S2ext_DR_fields
                0x000000000800c114        0x8 build/monitor/decoder/STM32F411.o
                0x000000000800c114                I2S2ext_DR_fields
 .rodata.I2S2ext_I2SCFGR_fields
                0x000000000800c11c       0x40 build/monitor/decoder/STM32F411.o
                0x000000000800c11c                I2S2ext_I2SCFGR_fields
 .rodata.I2S2ext_I2SPR_fields
                0x000000000800c15c       0x18 build/monitor/decoder/STM32F411.o
                0x000000000800c15c                I2S2ext_I2SPR_fields
 .rodata.I2S2ext_RXCRCR_fields
                0x000000000800c174        0x8 build/monitor/decoder/STM32F411.o
                0x000000000800c174                I2S2ext_RXCRCR_fields
 .rodata.I2S2ext_SR_fields
                0x000000000800c17c       0x48 build/monitor/decoder/STM32F411.o
                0x000000000800c17c                I2S2ext_SR_fields
 .rodata.I2S2ext_TXCRCR_fields
                0x000000000800c1c4        0x8 build/monitor/decoder/STM32F411.o
                0x000000000800c1c4                I2S2ext_TXCRCR_fields
 .rodata.I2S2ext_registers
                0x000000000800c1cc       0x90 build/monitor/decoder/STM32F411.o
                0x000000000800c1cc                I2S2ext_registers
 .rodata.IWDG_KR_fields
                0x000000000800c25c        0x8 build/monitor/decoder/STM32F411.o
                0x000000000800c25c                IWDG_KR_fields
 .rodata.IWDG_PR_fields
                0x000000000800c264        0x8 build/monitor/decoder/STM32F411.o
                0x000000000800c264                IWDG_PR_fields
 .rodata.IWDG_RLR_fields
                0x000000000800c26c        0x8 build/monitor/decoder/STM32F411.o
                0x000000000800c26c                IWDG_RLR_fields
 .rodata.IWDG_SR_fields
                0x000000000800c274       0x10 build/monitor/decoder/STM32F411.o
                0x000000000800c274                IWDG_SR_fields
 .rodata.IWDG_registers
                0x000000000800c284       0x40 build/monitor/decoder/STM32F411.o
                0x000000000800c284                IWDG_registers
 .rodata.MPU_MPU_CTRL_fields
                0x000000000800c2c4       0x18 build/monitor/decoder/STM32F411.o
                0x000000000800c2c4                MPU_MPU_CTRL_fields
 .rodata.MPU_MPU_RASR_fields
                0x000000000800c2dc       0x48 build/monitor/decoder/STM32F411.o
                0x000000000800c2dc                MPU_MPU_RASR_fields
 .rodata.MPU_MPU_RBAR_fields
                0x000000000800c324       0x18 build/monitor/decoder/STM32F411.o
                0x000000000800c324                MPU_MPU_RBAR_fields
 .rodata.MPU_MPU_RNR_fields
                0x000000000800c33c        0x8 build/monitor/decoder/STM32F411.o
                0x000000000800c33c                MPU_MPU_RNR_fields
 .rodata.MPU_MPU_TYPER_fields
                0x000000000800c344       0x18 build/monitor/decoder/STM32F411.o
                0x000000000800c344                MPU_MPU_TYPER_fields
 .rodata.MPU_registers
                0x000000000800c35c       0x50 build/monitor/decoder/STM32F411.o
                0x000000000800c35c                MPU_registers
 .rodata.NVIC_IABR0_fields
                0x000000000800c3ac        0x8 build/monitor/decoder/STM32F411.o
                0x000000000800c3ac                NVIC_IABR0_fields
 .rodata.NVIC_IABR1_fields
                0x000000000800c3b4        0x8 build/monitor/decoder/STM32F411.o
                0x000000000800c3b4                NVIC_IABR1_fields
 .rodata.NVIC_IABR2_fields
                0x000000000800c3bc        0x8 build/monitor/decoder/STM32F411.o
                0x000000000800c3bc                NVIC_IABR2_fields
 .rodata.NVIC_ICER0_fields
                0x000000000800c3c4        0x8 build/monitor/decoder/STM32F411.o
                0x000000000800c3c4                NVIC_ICER0_fields
 .rodata.NVIC_ICER1_fields
                0x000000000800c3cc        0x8 build/monitor/decoder/STM32F411.o
                0x000000000800c3cc                NVIC_ICER1_fields
 .rodata.NVIC_ICER2_fields
                0x000000000800c3d4        0x8 build/monitor/decoder/STM32F411.o
                0x000000000800c3d4                NVIC_ICER2_fields
 .rodata.NVIC_ICPR0_fields
                0x000000000800c3dc        0x8 build/monitor/decoder/STM32F411.o
                0x000000000800c3dc                NVIC_ICPR0_fields
 .rodata.NVIC_ICPR1_fields
                0x000000000800c3e4        0x8 build/monitor/decoder/STM32F411.o
                0x000000000800c3e4                NVIC_ICPR1_fields
 .rodata.NVIC_ICPR2_fields
                0x000000000800c3ec        0x8 build/monitor/decoder/STM32F411.o
                0x000000000800c3ec                NVIC_ICPR2_fields
 .rodata.NVIC_IPR0_fields
                0x000000000800c3f4       0x20 build/monitor/decoder/STM32F411.o
                0x000000000800c3f4                NVIC_IPR0_fields
 .rodata.NVIC_IPR10_fields
                0x000000000800c414       0x20 build/monitor/decoder/STM32F411.o
                0x000000000800c414                NVIC_IPR10_fields
 .rodata.NVIC_IPR11_fields
                0x000000000800c434       0x20 build/monitor/decoder/STM32F411.o
                0x000000000800c434                NVIC_IPR11_fields
 .rodata.NVIC_IPR12_fields
                0x000000000800c454       0x20 build/monitor/decoder/STM32F411.o
                0x000000000800c454                NVIC_IPR12_fields
 .rodata.NVIC_IPR13_fields
                0x000000000800c474       0x20 build/monitor/decoder/STM32F411.o
                0x000000000800c474                NVIC_IPR13_fields
 .rodata.NVIC_IPR14_fields
                0x000000000800c494       0x20 build/monitor/decoder/STM32F411.o
                0x000000000800c494                NVIC_IPR14_fields
 .rodata.NVIC_IPR15_fields
                0x000000000800c4b4       0x20 build/monitor/decoder/STM32F411.o
                0x000000000800c4b4                NVIC_IPR15_fields
 .rodata.NVIC_IPR16_fields
                0x000000000800c4d4       0x20 build/monitor/decoder/STM32F411.o
                0x000000000800c4d4                NVIC_IPR16_fields
 .rodata.NVIC_IPR17_fields
                0x000000000800c4f4       0x20 build/monitor/decoder/STM32F411.o
                0x000000000800c4f4                NVIC_IPR17_fields
 .rodata.NVIC_IPR18_fields
                0x000000000800c514       0x20 build/monitor/decoder/STM32F411.o
                0x000000000800c514                NVIC_IPR18_fields
 .rodata.NVIC_IPR19_fields
                0x000000000800c534       0x20 build/monitor/decoder/STM32F411.o
                0x000000000800c534                NVIC_IPR19_fields
 .rodata.NVIC_IPR1_fields
                0x000000000800c554       0x20 build/monitor/decoder/STM32F411.o
                0x000000000800c554                NVIC_IPR1_fields
 .rodata.NVIC_IPR2_fields
                0x000000000800c574       0x20 build/monitor/decoder/STM32F411.o
                0x000000000800c574                NVIC_IPR2_fields
 .rodata.NVIC_IPR3_fields
                0x000000000800c594       0x20 build/monitor/decoder/STM32F411.o
                0x000000000800c594                NVIC_IPR3_fields
 .rodata.NVIC_IPR4_fields
                0x000000000800c5b4       0x20 build/monitor/decoder/STM32F411.o
                0x000000000800c5b4                NVIC_IPR4_fields
 .rodata.NVIC_IPR5_fields
                0x000000000800c5d4       0x20 build/monitor/decoder/STM32F411.o
                0x000000000800c5d4                NVIC_IPR5_fields
 .rodata.NVIC_IPR6_fields
                0x000000000800c5f4       0x20 build/monitor/decoder/STM32F411.o
                0x000000000800c5f4                NVIC_IPR6_fields
 .rodata.NVIC_IPR7_fields
                0x000000000800c614       0x20 build/monitor/decoder/STM32F411.o
                0x000000000800c614                NVIC_IPR7_fields
 .rodata.NVIC_IPR8_fields
                0x000000000800c634       0x20 build/monitor/decoder/STM32F411.o
                0x000000000800c634                NVIC_IPR8_fields
 .rodata.NVIC_IPR9_fields
                0x000000000800c654       0x20 build/monitor/decoder/STM32F411.o
                0x000000000800c654                NVIC_IPR9_fields
 .rodata.NVIC_ISER0_fields
                0x000000000800c674        0x8 build/monitor/decoder/STM32F411.o
                0x000000000800c674                NVIC_ISER0_fields
 .rodata.NVIC_ISER1_fields
                0x000000000800c67c        0x8 build/monitor/decoder/STM32F411.o
                0x000000000800c67c                NVIC_ISER1_fields
 .rodata.NVIC_ISER2_fields
                0x000000000800c684        0x8 build/monitor/decoder/STM32F411.o
                0x000000000800c684                NVIC_ISER2_fields
 .rodata.NVIC_ISPR0_fields
                0x000000000800c68c        0x8 build/monitor/decoder/STM32F411.o
                0x000000000800c68c                NVIC_ISPR0_fields
 .rodata.NVIC_ISPR1_fields
                0x000000000800c694        0x8 build/monitor/decoder/STM32F411.o
                0x000000000800c694                NVIC_ISPR1_fields
 .rodata.NVIC_ISPR2_fields
                0x000000000800c69c        0x8 build/monitor/decoder/STM32F411.o
                0x000000000800c69c                NVIC_ISPR2_fields
 .rodata.NVIC_STIR_STIR_fields
                0x000000000800c6a4        0x8 build/monitor/decoder/STM32F411.o
                0x000000000800c6a4                NVIC_STIR_STIR_fields
 .rodata.NVIC_STIR_registers
                0x000000000800c6ac       0x10 build/monitor/decoder/STM32F411.o
                0x000000000800c6ac                NVIC_STIR_registers
 .rodata.NVIC_registers
                0x000000000800c6bc      0x230 build/monitor/decoder/STM32F411.o
                0x000000000800c6bc                NVIC_registers
 .rodata.OTG_FS_DEVICE_DIEPCTL1_fields
                0x000000000800c8ec       0x68 build/monitor/decoder/STM32F411.o
                0x000000000800c8ec                OTG_FS_DEVICE_DIEPCTL1_fields
 .rodata.OTG_FS_DEVICE_DIEPCTL2_fields
                0x000000000800c954       0x68 build/monitor/decoder/STM32F411.o
                0x000000000800c954                OTG_FS_DEVICE_DIEPCTL2_fields
 .rodata.OTG_FS_DEVICE_DIEPCTL3_fields
                0x000000000800c9bc       0x68 build/monitor/decoder/STM32F411.o
                0x000000000800c9bc                OTG_FS_DEVICE_DIEPCTL3_fields
 .rodata.OTG_FS_DEVICE_DIEPEMPMSK_fields
                0x000000000800ca24        0x8 build/monitor/decoder/STM32F411.o
                0x000000000800ca24                OTG_FS_DEVICE_DIEPEMPMSK_fields
 .rodata.OTG_FS_DEVICE_DIEPINT0_fields
                0x000000000800ca2c       0x30 build/monitor/decoder/STM32F411.o
                0x000000000800ca2c                OTG_FS_DEVICE_DIEPINT0_fields
 .rodata.OTG_FS_DEVICE_DIEPINT1_fields
                0x000000000800ca5c       0x30 build/monitor/decoder/STM32F411.o
                0x000000000800ca5c                OTG_FS_DEVICE_DIEPINT1_fields
 .rodata.OTG_FS_DEVICE_DIEPINT2_fields
                0x000000000800ca8c       0x30 build/monitor/decoder/STM32F411.o
                0x000000000800ca8c                OTG_FS_DEVICE_DIEPINT2_fields
 .rodata.OTG_FS_DEVICE_DIEPINT3_fields
                0x000000000800cabc       0x30 build/monitor/decoder/STM32F411.o
                0x000000000800cabc                OTG_FS_DEVICE_DIEPINT3_fields
 .rodata.OTG_FS_DEVICE_DIEPTSIZ0_fields
                0x000000000800caec       0x10 build/monitor/decoder/STM32F411.o
                0x000000000800caec                OTG_FS_DEVICE_DIEPTSIZ0_fields
 .rodata.OTG_FS_DEVICE_DIEPTSIZ1_fields
                0x000000000800cafc       0x18 build/monitor/decoder/STM32F411.o
                0x000000000800cafc                OTG_FS_DEVICE_DIEPTSIZ1_fields
 .rodata.OTG_FS_DEVICE_DIEPTSIZ2_fields
                0x000000000800cb14       0x18 build/monitor/decoder/STM32F411.o
                0x000000000800cb14                OTG_FS_DEVICE_DIEPTSIZ2_fields
 .rodata.OTG_FS_DEVICE_DIEPTSIZ3_fields
                0x000000000800cb2c       0x18 build/monitor/decoder/STM32F411.o
                0x000000000800cb2c                OTG_FS_DEVICE_DIEPTSIZ3_fields
 .rodata.OTG_FS_DEVICE_DOEPCTL0_fields
                0x000000000800cb44       0x50 build/monitor/decoder/STM32F411.o
                0x000000000800cb44                OTG_FS_DEVICE_DOEPCTL0_fields
 .rodata.OTG_FS_DEVICE_DOEPCTL1_fields
                0x000000000800cb94       0x68 build/monitor/decoder/STM32F411.o
                0x000000000800cb94                OTG_FS_DEVICE_DOEPCTL1_fields
 .rodata.OTG_FS_DEVICE_DOEPCTL2_fields
                0x000000000800cbfc       0x68 build/monitor/decoder/STM32F411.o
                0x000000000800cbfc                OTG_FS_DEVICE_DOEPCTL2_fields
 .rodata.OTG_FS_DEVICE_DOEPCTL3_fields
                0x000000000800cc64       0x68 build/monitor/decoder/STM32F411.o
                0x000000000800cc64                OTG_FS_DEVICE_DOEPCTL3_fields
 .rodata.OTG_FS_DEVICE_DOEPINT0_fields
                0x000000000800cccc       0x28 build/monitor/decoder/STM32F411.o
                0x000000000800cccc                OTG_FS_DEVICE_DOEPINT0_fields
 .rodata.OTG_FS_DEVICE_DOEPINT1_fields
                0x000000000800ccf4       0x28 build/monitor/decoder/STM32F411.o
                0x000000000800ccf4                OTG_FS_DEVICE_DOEPINT1_fields
 .rodata.OTG_FS_DEVICE_DOEPINT2_fields
                0x000000000800cd1c       0x28 build/monitor/decoder/STM32F411.o
                0x000000000800cd1c                OTG_FS_DEVICE_DOEPINT2_fields
 .rodata.OTG_FS_DEVICE_DOEPINT3_fields
                0x000000000800cd44       0x28 build/monitor/decoder/STM32F411.o
                0x000000000800cd44                OTG_FS_DEVICE_DOEPINT3_fields
 .rodata.OTG_FS_DEVICE_DOEPTSIZ0_fields
                0x000000000800cd6c       0x18 build/monitor/decoder/STM32F411.o
                0x000000000800cd6c                OTG_FS_DEVICE_DOEPTSIZ0_fields
 .rodata.OTG_FS_DEVICE_DOEPTSIZ1_fields
                0x000000000800cd84       0x18 build/monitor/decoder/STM32F411.o
                0x000000000800cd84                OTG_FS_DEVICE_DOEPTSIZ1_fields
 .rodata.OTG_FS_DEVICE_DOEPTSIZ2_fields
                0x000000000800cd9c       0x18 build/monitor/decoder/STM32F411.o
                0x000000000800cd9c                OTG_FS_DEVICE_DOEPTSIZ2_fields
 .rodata.OTG_FS_DEVICE_DOEPTSIZ3_fields
                0x000000000800cdb4       0x18 build/monitor/decoder/STM32F411.o
                0x000000000800cdb4                OTG_FS_DEVICE_DOEPTSIZ3_fields
 .rodata.OTG_FS_DEVICE_DTXFSTS0_fields
                0x000000000800cdcc        0x8 build/monitor/decoder/STM32F411.o
                0x000000000800cdcc                OTG_FS_DEVICE_DTXFSTS0_fields
 .rodata.OTG_FS_DEVICE_DTXFSTS1_fields
                0x000000000800cdd4        0x8 build/monitor/decoder/STM32F411.o
                0x000000000800cdd4                OTG_FS_DEVICE_DTXFSTS1_fields
 .rodata.OTG_FS_DEVICE_DTXFSTS2_fields
                0x000000000800cddc        0x8 build/monitor/decoder/STM32F411.o
                0x000000000800cddc                OTG_FS_DEVICE_DTXFSTS2_fields
 .rodata.OTG_FS_DEVICE_DTXFSTS3_fields
                0x000000000800cde4        0x8 build/monitor/decoder/STM32F411.o
                0x000000000800cde4                OTG_FS_DEVICE_DTXFSTS3_fields
 .rodata.OTG_FS_DEVICE_DVBUSDIS_fields
                0x000000000800cdec        0x8 build/monitor/decoder/STM32F411.o
                0x000000000800cdec                OTG_FS_DEVICE_DVBUSDIS_fields
 .rodata.OTG_FS_DEVICE_DVBUSPULSE_fields
                0x000000000800cdf4        0x8 build/monitor/decoder/STM32F411.o
                0x000000000800cdf4                OTG_FS_DEVICE_DVBUSPULSE_fields
 .rodata.OTG_FS_DEVICE_FS_DAINTMSK_fields
                0x000000000800cdfc       0x10 build/monitor/decoder/STM32F411.o
                0x000000000800cdfc                OTG_FS_DEVICE_FS_DAINTMSK_fields
 .rodata.OTG_FS_DEVICE_FS_DAINT_fields
                0x000000000800ce0c       0x10 build/monitor/decoder/STM32F411.o
                0x000000000800ce0c                OTG_FS_DEVICE_FS_DAINT_fields
 .rodata.OTG_FS_DEVICE_FS_DCFG_fields
                0x000000000800ce1c       0x20 build/monitor/decoder/STM32F411.o
                0x000000000800ce1c                OTG_FS_DEVICE_FS_DCFG_fields
 .rodata.OTG_FS_DEVICE_FS_DCTL_fields
                0x000000000800ce3c       0x50 build/monitor/decoder/STM32F411.o
                0x000000000800ce3c                OTG_FS_DEVICE_FS_DCTL_fields
 .rodata.OTG_FS_DEVICE_FS_DIEPCTL0_fields
                0x000000000800ce8c       0x50 build/monitor/decoder/STM32F411.o
                0x000000000800ce8c                OTG_FS_DEVICE_FS_DIEPCTL0_fields
 .rodata.OTG_FS_DEVICE_FS_DIEPMSK_fields
                0x000000000800cedc       0x30 build/monitor/decoder/STM32F411.o
                0x000000000800cedc                OTG_FS_DEVICE_FS_DIEPMSK_fields
 .rodata.OTG_FS_DEVICE_FS_DOEPMSK_fields
                0x000000000800cf0c       0x20 build/monitor/decoder/STM32F411.o
                0x000000000800cf0c                OTG_FS_DEVICE_FS_DOEPMSK_fields
 .rodata.OTG_FS_DEVICE_FS_DSTS_fields
                0x000000000800cf2c       0x20 build/monitor/decoder/STM32F411.o
                0x000000000800cf2c                OTG_FS_DEVICE_FS_DSTS_fields
 .rodata.OTG_FS_DEVICE_registers
                0x000000000800cf4c      0x260 build/monitor/decoder/STM32F411.o
                0x000000000800cf4c                OTG_FS_DEVICE_registers
 .rodata.OTG_FS_GLOBAL_FS_CID_fields
                0x000000000800d1ac        0x8 build/monitor/decoder/STM32F411.o
                0x000000000800d1ac                OTG_FS_GLOBAL_FS_CID_fields
 .rodata.OTG_FS_GLOBAL_FS_DIEPTXF1_fields
                0x000000000800d1b4       0x10 build/monitor/decoder/STM32F411.o
                0x000000000800d1b4                OTG_FS_GLOBAL_FS_DIEPTXF1_fields
 .rodata.OTG_FS_GLOBAL_FS_DIEPTXF2_fields
                0x000000000800d1c4       0x10 build/monitor/decoder/STM32F411.o
                0x000000000800d1c4                OTG_FS_GLOBAL_FS_DIEPTXF2_fields
 .rodata.OTG_FS_GLOBAL_FS_DIEPTXF3_fields
                0x000000000800d1d4       0x10 build/monitor/decoder/STM32F411.o
                0x000000000800d1d4                OTG_FS_GLOBAL_FS_DIEPTXF3_fields
 .rodata.OTG_FS_GLOBAL_FS_GAHBCFG_fields
                0x000000000800d1e4       0x18 build/monitor/decoder/STM32F411.o
                0x000000000800d1e4                OTG_FS_GLOBAL_FS_GAHBCFG_fields
 .rodata.OTG_FS_GLOBAL_FS_GCCFG_fields
                0x000000000800d1fc       0x20 build/monitor/decoder/STM32F411.o
                0x000000000800d1fc                OTG_FS_GLOBAL_FS_GCCFG_fields
 .rodata.OTG_FS_GLOBAL_FS_GINTMSK_fields
                0x000000000800d21c       0xc8 build/monitor/decoder/STM32F411.o
                0x000000000800d21c                OTG_FS_GLOBAL_FS_GINTMSK_fields
 .rodata.OTG_FS_GLOBAL_FS_GINTSTS_fields
                0x000000000800d2e4       0xc8 build/monitor/decoder/STM32F411.o
                0x000000000800d2e4                OTG_FS_GLOBAL_FS_GINTSTS_fields
 .rodata.OTG_FS_GLOBAL_FS_GNPTXFSIZ_Device_fields
                0x000000000800d3ac       0x10 build/monitor/decoder/STM32F411.o
                0x000000000800d3ac                OTG_FS_GLOBAL_FS_GNPTXFSIZ_Device_fields
 .rodata.OTG_FS_GLOBAL_FS_GNPTXFSIZ_Host_fields
                0x000000000800d3bc       0x10 build/monitor/decoder/STM32F411.o
                0x000000000800d3bc                OTG_FS_GLOBAL_FS_GNPTXFSIZ_Host_fields
 .rodata.OTG_FS_GLOBAL_FS_GNPTXSTS_fields
                0x000000000800d3cc       0x18 build/monitor/decoder/STM32F411.o
                0x000000000800d3cc                OTG_FS_GLOBAL_FS_GNPTXSTS_fields
 .rodata.OTG_FS_GLOBAL_FS_GOTGCTL_fields
                0x000000000800d3e4       0x50 build/monitor/decoder/STM32F411.o
                0x000000000800d3e4                OTG_FS_GLOBAL_FS_GOTGCTL_fields
 .rodata.OTG_FS_GLOBAL_FS_GOTGINT_fields
                0x000000000800d434       0x30 build/monitor/decoder/STM32F411.o
                0x000000000800d434                OTG_FS_GLOBAL_FS_GOTGINT_fields
 .rodata.OTG_FS_GLOBAL_FS_GRSTCTL_fields
                0x000000000800d464       0x38 build/monitor/decoder/STM32F411.o
                0x000000000800d464                OTG_FS_GLOBAL_FS_GRSTCTL_fields
 .rodata.OTG_FS_GLOBAL_FS_GRXFSIZ_fields
                0x000000000800d49c        0x8 build/monitor/decoder/STM32F411.o
                0x000000000800d49c                OTG_FS_GLOBAL_FS_GRXFSIZ_fields
 .rodata.OTG_FS_GLOBAL_FS_GRXSTSR_Device_fields
                0x000000000800d4a4       0x28 build/monitor/decoder/STM32F411.o
                0x000000000800d4a4                OTG_FS_GLOBAL_FS_GRXSTSR_Device_fields
 .rodata.OTG_FS_GLOBAL_FS_GRXSTSR_Host_fields
                0x000000000800d4cc       0x28 build/monitor/decoder/STM32F411.o
                0x000000000800d4cc                OTG_FS_GLOBAL_FS_GRXSTSR_Host_fields
 .rodata.OTG_FS_GLOBAL_FS_GUSBCFG_fields
                0x000000000800d4f4       0x40 build/monitor/decoder/STM32F411.o
                0x000000000800d4f4                OTG_FS_GLOBAL_FS_GUSBCFG_fields
 .rodata.OTG_FS_GLOBAL_FS_HPTXFSIZ_fields
                0x000000000800d534       0x10 build/monitor/decoder/STM32F411.o
                0x000000000800d534                OTG_FS_GLOBAL_FS_HPTXFSIZ_fields
 .rodata.OTG_FS_GLOBAL_registers
                0x000000000800d544      0x130 build/monitor/decoder/STM32F411.o
                0x000000000800d544                OTG_FS_GLOBAL_registers
 .rodata.OTG_FS_HOST_FS_HCCHAR0_fields
                0x000000000800d674       0x50 build/monitor/decoder/STM32F411.o
                0x000000000800d674                OTG_FS_HOST_FS_HCCHAR0_fields
 .rodata.OTG_FS_HOST_FS_HCCHAR1_fields
                0x000000000800d6c4       0x50 build/monitor/decoder/STM32F411.o
                0x000000000800d6c4                OTG_FS_HOST_FS_HCCHAR1_fields
 .rodata.OTG_FS_HOST_FS_HCCHAR2_fields
                0x000000000800d714       0x50 build/monitor/decoder/STM32F411.o
                0x000000000800d714                OTG_FS_HOST_FS_HCCHAR2_fields
 .rodata.OTG_FS_HOST_FS_HCCHAR3_fields
                0x000000000800d764       0x50 build/monitor/decoder/STM32F411.o
                0x000000000800d764                OTG_FS_HOST_FS_HCCHAR3_fields
 .rodata.OTG_FS_HOST_FS_HCCHAR4_fields
                0x000000000800d7b4       0x50 build/monitor/decoder/STM32F411.o
                0x000000000800d7b4                OTG_FS_HOST_FS_HCCHAR4_fields
 .rodata.OTG_FS_HOST_FS_HCCHAR5_fields
                0x000000000800d804       0x50 build/monitor/decoder/STM32F411.o
                0x000000000800d804                OTG_FS_HOST_FS_HCCHAR5_fields
 .rodata.OTG_FS_HOST_FS_HCCHAR6_fields
                0x000000000800d854       0x50 build/monitor/decoder/STM32F411.o
                0x000000000800d854                OTG_FS_HOST_FS_HCCHAR6_fields
 .rodata.OTG_FS_HOST_FS_HCCHAR7_fields
                0x000000000800d8a4       0x50 build/monitor/decoder/STM32F411.o
                0x000000000800d8a4                OTG_FS_HOST_FS_HCCHAR7_fields
 .rodata.OTG_FS_HOST_FS_HCFG_fields
                0x000000000800d8f4       0x10 build/monitor/decoder/STM32F411.o
                0x000000000800d8f4                OTG_FS_HOST_FS_HCFG_fields
 .rodata.OTG_FS_HOST_FS_HCINT0_fields
                0x000000000800d904       0x48 build/monitor/decoder/STM32F411.o
                0x000000000800d904                OTG_FS_HOST_FS_HCINT0_fields
 .rodata.OTG_FS_HOST_FS_HCINT1_fields
                0x000000000800d94c       0x48 build/monitor/decoder/STM32F411.o
                0x000000000800d94c                OTG_FS_HOST_FS_HCINT1_fields
 .rodata.OTG_FS_HOST_FS_HCINT2_fields
                0x000000000800d994       0x48 build/monitor/decoder/STM32F411.o
                0x000000000800d994                OTG_FS_HOST_FS_HCINT2_fields
 .rodata.OTG_FS_HOST_FS_HCINT3_fields
                0x000000000800d9dc       0x48 build/monitor/decoder/STM32F411.o
                0x000000000800d9dc                OTG_FS_HOST_FS_HCINT3_fields
 .rodata.OTG_FS_HOST_FS_HCINT4_fields
                0x000000000800da24       0x48 build/monitor/decoder/STM32F411.o
                0x000000000800da24                OTG_FS_HOST_FS_HCINT4_fields
 .rodata.OTG_FS_HOST_FS_HCINT5_fields
                0x000000000800da6c       0x48 build/monitor/decoder/STM32F411.o
                0x000000000800da6c                OTG_FS_HOST_FS_HCINT5_fields
 .rodata.OTG_FS_HOST_FS_HCINT6_fields
                0x000000000800dab4       0x48 build/monitor/decoder/STM32F411.o
                0x000000000800dab4                OTG_FS_HOST_FS_HCINT6_fields
 .rodata.OTG_FS_HOST_FS_HCINT7_fields
                0x000000000800dafc       0x48 build/monitor/decoder/STM32F411.o
                0x000000000800dafc                OTG_FS_HOST_FS_HCINT7_fields
 .rodata.OTG_FS_HOST_FS_HCINTMSK0_fields
                0x000000000800db44       0x50 build/monitor/decoder/STM32F411.o
                0x000000000800db44                OTG_FS_HOST_FS_HCINTMSK0_fields
 .rodata.OTG_FS_HOST_FS_HCINTMSK1_fields
                0x000000000800db94       0x50 build/monitor/decoder/STM32F411.o
                0x000000000800db94                OTG_FS_HOST_FS_HCINTMSK1_fields
 .rodata.OTG_FS_HOST_FS_HCINTMSK2_fields
                0x000000000800dbe4       0x50 build/monitor/decoder/STM32F411.o
                0x000000000800dbe4                OTG_FS_HOST_FS_HCINTMSK2_fields
 .rodata.OTG_FS_HOST_FS_HCINTMSK3_fields
                0x000000000800dc34       0x50 build/monitor/decoder/STM32F411.o
                0x000000000800dc34                OTG_FS_HOST_FS_HCINTMSK3_fields
 .rodata.OTG_FS_HOST_FS_HCINTMSK4_fields
                0x000000000800dc84       0x50 build/monitor/decoder/STM32F411.o
                0x000000000800dc84                OTG_FS_HOST_FS_HCINTMSK4_fields
 .rodata.OTG_FS_HOST_FS_HCINTMSK5_fields
                0x000000000800dcd4       0x50 build/monitor/decoder/STM32F411.o
                0x000000000800dcd4                OTG_FS_HOST_FS_HCINTMSK5_fields
 .rodata.OTG_FS_HOST_FS_HCINTMSK6_fields
                0x000000000800dd24       0x50 build/monitor/decoder/STM32F411.o
                0x000000000800dd24                OTG_FS_HOST_FS_HCINTMSK6_fields
 .rodata.OTG_FS_HOST_FS_HCINTMSK7_fields
                0x000000000800dd74       0x50 build/monitor/decoder/STM32F411.o
                0x000000000800dd74                OTG_FS_HOST_FS_HCINTMSK7_fields
 .rodata.OTG_FS_HOST_FS_HCTSIZ0_fields
                0x000000000800ddc4       0x18 build/monitor/decoder/STM32F411.o
                0x000000000800ddc4                OTG_FS_HOST_FS_HCTSIZ0_fields
 .rodata.OTG_FS_HOST_FS_HCTSIZ1_fields
                0x000000000800dddc       0x18 build/monitor/decoder/STM32F411.o
                0x000000000800dddc                OTG_FS_HOST_FS_HCTSIZ1_fields
 .rodata.OTG_FS_HOST_FS_HCTSIZ2_fields
                0x000000000800ddf4       0x18 build/monitor/decoder/STM32F411.o
                0x000000000800ddf4                OTG_FS_HOST_FS_HCTSIZ2_fields
 .rodata.OTG_FS_HOST_FS_HCTSIZ3_fields
                0x000000000800de0c       0x18 build/monitor/decoder/STM32F411.o
                0x000000000800de0c                OTG_FS_HOST_FS_HCTSIZ3_fields
 .rodata.OTG_FS_HOST_FS_HCTSIZ4_fields
                0x000000000800de24       0x18 build/monitor/decoder/STM32F411.o
                0x000000000800de24                OTG_FS_HOST_FS_HCTSIZ4_fields
 .rodata.OTG_FS_HOST_FS_HCTSIZ5_fields
                0x000000000800de3c       0x18 build/monitor/decoder/STM32F411.o
                0x000000000800de3c                OTG_FS_HOST_FS_HCTSIZ5_fields
 .rodata.OTG_FS_HOST_FS_HCTSIZ6_fields
                0x000000000800de54       0x18 build/monitor/decoder/STM32F411.o
                0x000000000800de54                OTG_FS_HOST_FS_HCTSIZ6_fields
 .rodata.OTG_FS_HOST_FS_HCTSIZ7_fields
                0x000000000800de6c       0x18 build/monitor/decoder/STM32F411.o
                0x000000000800de6c                OTG_FS_HOST_FS_HCTSIZ7_fields
 .rodata.OTG_FS_HOST_FS_HFNUM_fields
                0x000000000800de84       0x10 build/monitor/decoder/STM32F411.o
                0x000000000800de84                OTG_FS_HOST_FS_HFNUM_fields
 .rodata.OTG_FS_HOST_FS_HPRT_fields
                0x000000000800de94       0x68 build/monitor/decoder/STM32F411.o
                0x000000000800de94                OTG_FS_HOST_FS_HPRT_fields
 .rodata.OTG_FS_HOST_FS_HPTXSTS_fields
                0x000000000800defc       0x18 build/monitor/decoder/STM32F411.o
                0x000000000800defc                OTG_FS_HOST_FS_HPTXSTS_fields
 .rodata.OTG_FS_HOST_HAINTMSK_fields
                0x000000000800df14        0x8 build/monitor/decoder/STM32F411.o
                0x000000000800df14                OTG_FS_HOST_HAINTMSK_fields
 .rodata.OTG_FS_HOST_HAINT_fields
                0x000000000800df1c        0x8 build/monitor/decoder/STM32F411.o
                0x000000000800df1c                OTG_FS_HOST_HAINT_fields
 .rodata.OTG_FS_HOST_HFIR_fields
                0x000000000800df24        0x8 build/monitor/decoder/STM32F411.o
                0x000000000800df24                OTG_FS_HOST_HFIR_fields
 .rodata.OTG_FS_HOST_registers
                0x000000000800df2c      0x270 build/monitor/decoder/STM32F411.o
                0x000000000800df2c                OTG_FS_HOST_registers
 .rodata.OTG_FS_PWRCLK_FS_PCGCCTL_fields
                0x000000000800e19c       0x18 build/monitor/decoder/STM32F411.o
                0x000000000800e19c                OTG_FS_PWRCLK_FS_PCGCCTL_fields
 .rodata.OTG_FS_PWRCLK_registers
                0x000000000800e1b4       0x10 build/monitor/decoder/STM32F411.o
                0x000000000800e1b4                OTG_FS_PWRCLK_registers
 .rodata.PWR_CR_fields
                0x000000000800e1c4       0x50 build/monitor/decoder/STM32F411.o
                0x000000000800e1c4                PWR_CR_fields
 .rodata.PWR_CSR_fields
                0x000000000800e214       0x38 build/monitor/decoder/STM32F411.o
                0x000000000800e214                PWR_CSR_fields
 .rodata.PWR_registers
                0x000000000800e24c       0x20 build/monitor/decoder/STM32F411.o
                0x000000000800e24c                PWR_registers
 .rodata.Peripherals
                0x000000000800e26c      0x380 build/monitor/decoder/STM32F411.o
                0x000000000800e26c                Peripherals
 .rodata.RCC_AHB1ENR_fields
                0x000000000800e5ec       0x48 build/monitor/decoder/STM32F411.o
                0x000000000800e5ec                RCC_AHB1ENR_fields
 .rodata.RCC_AHB1LPENR_fields
                0x000000000800e634       0x58 build/monitor/decoder/STM32F411.o
                0x000000000800e634                RCC_AHB1LPENR_fields
 .rodata.RCC_AHB1RSTR_fields
                0x000000000800e68c       0x48 build/monitor/decoder/STM32F411.o
                0x000000000800e68c                RCC_AHB1RSTR_fields
 .rodata.RCC_AHB2ENR_fields
                0x000000000800e6d4        0x8 build/monitor/decoder/STM32F411.o
                0x000000000800e6d4                RCC_AHB2ENR_fields
 .rodata.RCC_AHB2LPENR_fields
                0x000000000800e6dc        0x8 build/monitor/decoder/STM32F411.o
                0x000000000800e6dc                RCC_AHB2LPENR_fields
 .rodata.RCC_AHB2RSTR_fields
                0x000000000800e6e4        0x8 build/monitor/decoder/STM32F411.o
                0x000000000800e6e4                RCC_AHB2RSTR_fields
 .rodata.RCC_APB1ENR_fields
                0x000000000800e6ec       0x60 build/monitor/decoder/STM32F411.o
                0x000000000800e6ec                RCC_APB1ENR_fields
 .rodata.RCC_APB1LPENR_fields
                0x000000000800e74c       0x60 build/monitor/decoder/STM32F411.o
                0x000000000800e74c                RCC_APB1LPENR_fields
 .rodata.RCC_APB1RSTR_fields
                0x000000000800e7ac       0x60 build/monitor/decoder/STM32F411.o
                0x000000000800e7ac                RCC_APB1RSTR_fields
 .rodata.RCC_APB2ENR_fields
                0x000000000800e80c       0x58 build/monitor/decoder/STM32F411.o
                0x000000000800e80c                RCC_APB2ENR_fields
 .rodata.RCC_APB2LPENR_fields
                0x000000000800e864       0x58 build/monitor/decoder/STM32F411.o
                0x000000000800e864                RCC_APB2LPENR_fields
 .rodata.RCC_APB2RSTR_fields
                0x000000000800e8bc       0x50 build/monitor/decoder/STM32F411.o
                0x000000000800e8bc                RCC_APB2RSTR_fields
 .rodata.RCC_BDCR_fields
                0x000000000800e90c       0x38 build/monitor/decoder/STM32F411.o
                0x000000000800e90c                RCC_BDCR_fields
 .rodata.RCC_CFGR_fields
                0x000000000800e944       0x68 build/monitor/decoder/STM32F411.o
                0x000000000800e944                RCC_CFGR_fields
 .rodata.RCC_CIR_fields
                0x000000000800e9ac       0xa0 build/monitor/decoder/STM32F411.o
                0x000000000800e9ac                RCC_CIR_fields
 .rodata.RCC_CR_fields
                0x000000000800ea4c       0x60 build/monitor/decoder/STM32F411.o
                0x000000000800ea4c                RCC_CR_fields
 .rodata.RCC_CSR_fields
                0x000000000800eaac       0x50 build/monitor/decoder/STM32F411.o
                0x000000000800eaac                RCC_CSR_fields
 .rodata.RCC_PLLCFGR_fields
                0x000000000800eafc       0xb0 build/monitor/decoder/STM32F411.o
                0x000000000800eafc                RCC_PLLCFGR_fields
 .rodata.RCC_PLLI2SCFGR_fields
                0x000000000800ebac       0x10 build/monitor/decoder/STM32F411.o
                0x000000000800ebac                RCC_PLLI2SCFGR_fields
 .rodata.RCC_SSCGR_fields
                0x000000000800ebbc       0x20 build/monitor/decoder/STM32F411.o
                0x000000000800ebbc                RCC_SSCGR_fields
 .rodata.RCC_registers
                0x000000000800ebdc      0x140 build/monitor/decoder/STM32F411.o
                0x000000000800ebdc                RCC_registers
 .rodata.RTC_ALRMAR_fields
                0x000000000800ed1c       0x70 build/monitor/decoder/STM32F411.o
                0x000000000800ed1c                RTC_ALRMAR_fields
 .rodata.RTC_ALRMASSR_fields
                0x000000000800ed8c       0x10 build/monitor/decoder/STM32F411.o
                0x000000000800ed8c                RTC_ALRMASSR_fields
 .rodata.RTC_ALRMBR_fields
                0x000000000800ed9c       0x70 build/monitor/decoder/STM32F411.o
                0x000000000800ed9c                RTC_ALRMBR_fields
 .rodata.RTC_ALRMBSSR_fields
                0x000000000800ee0c       0x10 build/monitor/decoder/STM32F411.o
                0x000000000800ee0c                RTC_ALRMBSSR_fields
 .rodata.RTC_BKP0R_fields
                0x000000000800ee1c        0x8 build/monitor/decoder/STM32F411.o
                0x000000000800ee1c                RTC_BKP0R_fields
 .rodata.RTC_BKP10R_fields
                0x000000000800ee24        0x8 build/monitor/decoder/STM32F411.o
                0x000000000800ee24                RTC_BKP10R_fields
 .rodata.RTC_BKP11R_fields
                0x000000000800ee2c        0x8 build/monitor/decoder/STM32F411.o
                0x000000000800ee2c                RTC_BKP11R_fields
 .rodata.RTC_BKP12R_fields
                0x000000000800ee34        0x8 build/monitor/decoder/STM32F411.o
                0x000000000800ee34                RTC_BKP12R_fields
 .rodata.RTC_BKP13R_fields
                0x000000000800ee3c        0x8 build/monitor/decoder/STM32F411.o
                0x000000000800ee3c                RTC_BKP13R_fields
 .rodata.RTC_BKP14R_fields
                0x000000000800ee44        0x8 build/monitor/decoder/STM32F411.o
                0x000000000800ee44                RTC_BKP14R_fields
 .rodata.RTC_BKP15R_fields
                0x000000000800ee4c        0x8 build/monitor/decoder/STM32F411.o
                0x000000000800ee4c                RTC_BKP15R_fields
 .rodata.RTC_BKP16R_fields
                0x000000000800ee54        0x8 build/monitor/decoder/STM32F411.o
                0x000000000800ee54                RTC_BKP16R_fields
 .rodata.RTC_BKP17R_fields
                0x000000000800ee5c        0x8 build/monitor/decoder/STM32F411.o
                0x000000000800ee5c                RTC_BKP17R_fields
 .rodata.RTC_BKP18R_fields
                0x000000000800ee64        0x8 build/monitor/decoder/STM32F411.o
                0x000000000800ee64                RTC_BKP18R_fields
 .rodata.RTC_BKP19R_fields
                0x000000000800ee6c        0x8 build/monitor/decoder/STM32F411.o
                0x000000000800ee6c                RTC_BKP19R_fields
 .rodata.RTC_BKP1R_fields
                0x000000000800ee74        0x8 build/monitor/decoder/STM32F411.o
                0x000000000800ee74                RTC_BKP1R_fields
 .rodata.RTC_BKP2R_fields
                0x000000000800ee7c        0x8 build/monitor/decoder/STM32F411.o
                0x000000000800ee7c                RTC_BKP2R_fields
 .rodata.RTC_BKP3R_fields
                0x000000000800ee84        0x8 build/monitor/decoder/STM32F411.o
                0x000000000800ee84                RTC_BKP3R_fields
 .rodata.RTC_BKP4R_fields
                0x000000000800ee8c        0x8 build/monitor/decoder/STM32F411.o
                0x000000000800ee8c                RTC_BKP4R_fields
 .rodata.RTC_BKP5R_fields
                0x000000000800ee94        0x8 build/monitor/decoder/STM32F411.o
                0x000000000800ee94                RTC_BKP5R_fields
 .rodata.RTC_BKP6R_fields
                0x000000000800ee9c        0x8 build/monitor/decoder/STM32F411.o
                0x000000000800ee9c                RTC_BKP6R_fields
 .rodata.RTC_BKP7R_fields
                0x000000000800eea4        0x8 build/monitor/decoder/STM32F411.o
                0x000000000800eea4                RTC_BKP7R_fields
 .rodata.RTC_BKP8R_fields
                0x000000000800eeac        0x8 build/monitor/decoder/STM32F411.o
                0x000000000800eeac                RTC_BKP8R_fields
 .rodata.RTC_BKP9R_fields
                0x000000000800eeb4        0x8 build/monitor/decoder/STM32F411.o
                0x000000000800eeb4                RTC_BKP9R_fields
 .rodata.RTC_CALIBR_fields
                0x000000000800eebc       0x10 build/monitor/decoder/STM32F411.o
                0x000000000800eebc                RTC_CALIBR_fields
 .rodata.RTC_CALR_fields
                0x000000000800eecc       0x20 build/monitor/decoder/STM32F411.o
                0x000000000800eecc                RTC_CALR_fields
 .rodata.RTC_CR_fields
                0x000000000800eeec       0xa8 build/monitor/decoder/STM32F411.o
                0x000000000800eeec                RTC_CR_fields
 .rodata.RTC_DR_fields
                0x000000000800ef94       0x38 build/monitor/decoder/STM32F411.o
                0x000000000800ef94                RTC_DR_fields
 .rodata.RTC_ISR_fields
                0x000000000800efcc       0x80 build/monitor/decoder/STM32F411.o
                0x000000000800efcc                RTC_ISR_fields
 .rodata.RTC_PRER_fields
                0x000000000800f04c       0x10 build/monitor/decoder/STM32F411.o
                0x000000000800f04c                RTC_PRER_fields
 .rodata.RTC_SHIFTR_fields
                0x000000000800f05c       0x10 build/monitor/decoder/STM32F411.o
                0x000000000800f05c                RTC_SHIFTR_fields
 .rodata.RTC_SSR_fields
                0x000000000800f06c        0x8 build/monitor/decoder/STM32F411.o
                0x000000000800f06c                RTC_SSR_fields
 .rodata.RTC_TAFCR_fields
                0x000000000800f074       0x68 build/monitor/decoder/STM32F411.o
                0x000000000800f074                RTC_TAFCR_fields
 .rodata.RTC_TR_fields
                0x000000000800f0dc       0x38 build/monitor/decoder/STM32F411.o
                0x000000000800f0dc                RTC_TR_fields
 .rodata.RTC_TSDR_fields
                0x000000000800f114       0x28 build/monitor/decoder/STM32F411.o
                0x000000000800f114                RTC_TSDR_fields
 .rodata.RTC_TSSSR_fields
                0x000000000800f13c        0x8 build/monitor/decoder/STM32F411.o
                0x000000000800f13c                RTC_TSSSR_fields
 .rodata.RTC_TSTR_fields
                0x000000000800f144       0x38 build/monitor/decoder/STM32F411.o
                0x000000000800f144                RTC_TSTR_fields
 .rodata.RTC_WPR_fields
                0x000000000800f17c        0x8 build/monitor/decoder/STM32F411.o
                0x000000000800f17c                RTC_WPR_fields
 .rodata.RTC_WUTR_fields
                0x000000000800f184        0x8 build/monitor/decoder/STM32F411.o
                0x000000000800f184                RTC_WUTR_fields
 .rodata.RTC_registers
                0x000000000800f18c      0x270 build/monitor/decoder/STM32F411.o
                0x000000000800f18c                RTC_registers
 .rodata.SCB_ACTRL_ACTRL_fields
                0x000000000800f3fc       0x28 build/monitor/decoder/STM32F411.o
                0x000000000800f3fc                SCB_ACTRL_ACTRL_fields
 .rodata.SCB_ACTRL_registers
                0x000000000800f424       0x10 build/monitor/decoder/STM32F411.o
                0x000000000800f424                SCB_ACTRL_registers
 .rodata.SCB_AFSR_fields
                0x000000000800f434        0x8 build/monitor/decoder/STM32F411.o
                0x000000000800f434                SCB_AFSR_fields
 .rodata.SCB_AIRCR_fields
                0x000000000800f43c       0x30 build/monitor/decoder/STM32F411.o
                0x000000000800f43c                SCB_AIRCR_fields
 .rodata.SCB_BFAR_fields
                0x000000000800f46c        0x8 build/monitor/decoder/STM32F411.o
                0x000000000800f46c                SCB_BFAR_fields
 .rodata.SCB_CCR_fields
                0x000000000800f474       0x30 build/monitor/decoder/STM32F411.o
                0x000000000800f474                SCB_CCR_fields
 .rodata.SCB_CFSR_UFSR_BFSR_MMFSR_fields
                0x000000000800f4a4       0x90 build/monitor/decoder/STM32F411.o
                0x000000000800f4a4                SCB_CFSR_UFSR_BFSR_MMFSR_fields
 .rodata.SCB_CPUID_fields
                0x000000000800f534       0x28 build/monitor/decoder/STM32F411.o
                0x000000000800f534                SCB_CPUID_fields
 .rodata.SCB_HFSR_fields
                0x000000000800f55c       0x18 build/monitor/decoder/STM32F411.o
                0x000000000800f55c                SCB_HFSR_fields
 .rodata.SCB_ICSR_fields
                0x000000000800f574       0x48 build/monitor/decoder/STM32F411.o
                0x000000000800f574                SCB_ICSR_fields
 .rodata.SCB_MMFAR_fields
                0x000000000800f5bc        0x8 build/monitor/decoder/STM32F411.o
                0x000000000800f5bc                SCB_MMFAR_fields
 .rodata.SCB_SCR_fields
                0x000000000800f5c4       0x18 build/monitor/decoder/STM32F411.o
                0x000000000800f5c4                SCB_SCR_fields
 .rodata.SCB_SHCRS_fields
                0x000000000800f5dc       0x70 build/monitor/decoder/STM32F411.o
                0x000000000800f5dc                SCB_SHCRS_fields
 .rodata.SCB_SHPR1_fields
                0x000000000800f64c       0x18 build/monitor/decoder/STM32F411.o
                0x000000000800f64c                SCB_SHPR1_fields
 .rodata.SCB_SHPR2_fields
                0x000000000800f664        0x8 build/monitor/decoder/STM32F411.o
                0x000000000800f664                SCB_SHPR2_fields
 .rodata.SCB_SHPR3_fields
                0x000000000800f66c       0x10 build/monitor/decoder/STM32F411.o
                0x000000000800f66c                SCB_SHPR3_fields
 .rodata.SCB_VTOR_fields
                0x000000000800f67c        0x8 build/monitor/decoder/STM32F411.o
                0x000000000800f67c                SCB_VTOR_fields
 .rodata.SCB_registers
                0x000000000800f684       0xf0 build/monitor/decoder/STM32F411.o
                0x000000000800f684                SCB_registers
 .rodata.SDIO_ARG_fields
                0x000000000800f774        0x8 build/monitor/decoder/STM32F411.o
                0x000000000800f774                SDIO_ARG_fields
 .rodata.SDIO_CLKCR_fields
                0x000000000800f77c       0x38 build/monitor/decoder/STM32F411.o
                0x000000000800f77c                SDIO_CLKCR_fields
 .rodata.SDIO_CMD_fields
                0x000000000800f7b4       0x48 build/monitor/decoder/STM32F411.o
                0x000000000800f7b4                SDIO_CMD_fields
 .rodata.SDIO_DCOUNT_fields
                0x000000000800f7fc        0x8 build/monitor/decoder/STM32F411.o
                0x000000000800f7fc                SDIO_DCOUNT_fields
 .rodata.SDIO_DCTRL_fields
                0x000000000800f804       0x48 build/monitor/decoder/STM32F411.o
                0x000000000800f804                SDIO_DCTRL_fields
 .rodata.SDIO_DLEN_fields
                0x000000000800f84c        0x8 build/monitor/decoder/STM32F411.o
                0x000000000800f84c                SDIO_DLEN_fields
 .rodata.SDIO_DTIMER_fields
                0x000000000800f854        0x8 build/monitor/decoder/STM32F411.o
                0x000000000800f854                SDIO_DTIMER_fields
 .rodata.SDIO_FIFOCNT_fields
                0x000000000800f85c        0x8 build/monitor/decoder/STM32F411.o
                0x000000000800f85c                SDIO_FIFOCNT_fields
 .rodata.SDIO_FIFO_fields
                0x000000000800f864        0x8 build/monitor/decoder/STM32F411.o
                0x000000000800f864                SDIO_FIFO_fields
 .rodata.SDIO_ICR_fields
                0x000000000800f86c       0x68 build/monitor/decoder/STM32F411.o
                0x000000000800f86c                SDIO_ICR_fields
 .rodata.SDIO_MASK_fields
                0x000000000800f8d4       0xc0 build/monitor/decoder/STM32F411.o
                0x000000000800f8d4                SDIO_MASK_fields
 .rodata.SDIO_POWER_fields
                0x000000000800f994        0x8 build/monitor/decoder/STM32F411.o
                0x000000000800f994                SDIO_POWER_fields
 .rodata.SDIO_RESP1_fields
                0x000000000800f99c        0x8 build/monitor/decoder/STM32F411.o
                0x000000000800f99c                SDIO_RESP1_fields
 .rodata.SDIO_RESP2_fields
                0x000000000800f9a4        0x8 build/monitor/decoder/STM32F411.o
                0x000000000800f9a4                SDIO_RESP2_fields
 .rodata.SDIO_RESP3_fields
                0x000000000800f9ac        0x8 build/monitor/decoder/STM32F411.o
                0x000000000800f9ac                SDIO_RESP3_fields
 .rodata.SDIO_RESP4_fields
                0x000000000800f9b4        0x8 build/monitor/decoder/STM32F411.o
                0x000000000800f9b4                SDIO_RESP4_fields
 .rodata.SDIO_RESPCMD_fields
                0x000000000800f9bc        0x8 build/monitor/decoder/STM32F411.o
                0x000000000800f9bc                SDIO_RESPCMD_fields
 .rodata.SDIO_STA_fields
                0x000000000800f9c4       0xc0 build/monitor/decoder/STM32F411.o
                0x000000000800f9c4                SDIO_STA_fields
 .rodata.SDIO_registers
                0x000000000800fa84      0x120 build/monitor/decoder/STM32F411.o
                0x000000000800fa84                SDIO_registers
 .rodata.STK_CALIB_fields
                0x000000000800fba4       0x18 build/monitor/decoder/STM32F411.o
                0x000000000800fba4                STK_CALIB_fields
 .rodata.STK_CTRL_fields
                0x000000000800fbbc       0x20 build/monitor/decoder/STM32F411.o
                0x000000000800fbbc                STK_CTRL_fields
 .rodata.STK_LOAD_fields
                0x000000000800fbdc        0x8 build/monitor/decoder/STM32F411.o
                0x000000000800fbdc                STK_LOAD_fields
 .rodata.STK_VAL_fields
                0x000000000800fbe4        0x8 build/monitor/decoder/STM32F411.o
                0x000000000800fbe4                STK_VAL_fields
 .rodata.STK_registers
                0x000000000800fbec       0x40 build/monitor/decoder/STM32F411.o
                0x000000000800fbec                STK_registers
 .rodata.SYSCFG_CMPCR_fields
                0x000000000800fc2c       0x10 build/monitor/decoder/STM32F411.o
                0x000000000800fc2c                SYSCFG_CMPCR_fields
 .rodata.SYSCFG_EXTICR1_fields
                0x000000000800fc3c       0x20 build/monitor/decoder/STM32F411.o
                0x000000000800fc3c                SYSCFG_EXTICR1_fields
 .rodata.SYSCFG_EXTICR2_fields
                0x000000000800fc5c       0x20 build/monitor/decoder/STM32F411.o
                0x000000000800fc5c                SYSCFG_EXTICR2_fields
 .rodata.SYSCFG_EXTICR3_fields
                0x000000000800fc7c       0x20 build/monitor/decoder/STM32F411.o
                0x000000000800fc7c                SYSCFG_EXTICR3_fields
 .rodata.SYSCFG_EXTICR4_fields
                0x000000000800fc9c       0x20 build/monitor/decoder/STM32F411.o
                0x000000000800fc9c                SYSCFG_EXTICR4_fields
 .rodata.SYSCFG_MEMRM_fields
                0x000000000800fcbc        0x8 build/monitor/decoder/STM32F411.o
                0x000000000800fcbc                SYSCFG_MEMRM_fields
 .rodata.SYSCFG_PMC_fields
                0x000000000800fcc4        0x8 build/monitor/decoder/STM32F411.o
                0x000000000800fcc4                SYSCFG_PMC_fields
 .rodata.SYSCFG_registers
                0x000000000800fccc       0x70 build/monitor/decoder/STM32F411.o
                0x000000000800fccc                SYSCFG_registers
 .rodata.TIM10_ARR_fields
                0x000000000800fd3c        0x8 build/monitor/decoder/STM32F411.o
                0x000000000800fd3c                TIM10_ARR_fields
 .rodata.TIM10_CCER_fields
                0x000000000800fd44       0x18 build/monitor/decoder/STM32F411.o
                0x000000000800fd44                TIM10_CCER_fields
 .rodata.TIM10_CCMR1_Input_fields
                0x000000000800fd5c       0x18 build/monitor/decoder/STM32F411.o
                0x000000000800fd5c                TIM10_CCMR1_Input_fields
 .rodata.TIM10_CCMR1_Output_fields
                0x000000000800fd74       0x20 build/monitor/decoder/STM32F411.o
                0x000000000800fd74                TIM10_CCMR1_Output_fields
 .rodata.TIM10_CCR1_fields
                0x000000000800fd94        0x8 build/monitor/decoder/STM32F411.o
                0x000000000800fd94                TIM10_CCR1_fields
 .rodata.TIM10_CNT_fields
                0x000000000800fd9c        0x8 build/monitor/decoder/STM32F411.o
                0x000000000800fd9c                TIM10_CNT_fields
 .rodata.TIM10_CR1_fields
                0x000000000800fda4       0x28 build/monitor/decoder/STM32F411.o
                0x000000000800fda4                TIM10_CR1_fields
 .rodata.TIM10_DIER_fields
                0x000000000800fdcc       0x10 build/monitor/decoder/STM32F411.o
                0x000000000800fdcc                TIM10_DIER_fields
 .rodata.TIM10_EGR_fields
                0x000000000800fddc       0x10 build/monitor/decoder/STM32F411.o
                0x000000000800fddc                TIM10_EGR_fields
 .rodata.TIM10_PSC_fields
                0x000000000800fdec        0x8 build/monitor/decoder/STM32F411.o
                0x000000000800fdec                TIM10_PSC_fields
 .rodata.TIM10_SR_fields
                0x000000000800fdf4       0x18 build/monitor/decoder/STM32F411.o
                0x000000000800fdf4                TIM10_SR_fields
 .rodata.TIM10_registers
                0x000000000800fe0c       0xb0 build/monitor/decoder/STM32F411.o
                0x000000000800fe0c                TIM10_registers
 .rodata.TIM11_ARR_fields
                0x000000000800febc        0x8 build/monitor/decoder/STM32F411.o
                0x000000000800febc                TIM11_ARR_fields
 .rodata.TIM11_CCER_fields
                0x000000000800fec4       0x18 build/monitor/decoder/STM32F411.o
                0x000000000800fec4                TIM11_CCER_fields
 .rodata.TIM11_CCMR1_Input_fields
                0x000000000800fedc       0x18 build/monitor/decoder/STM32F411.o
                0x000000000800fedc                TIM11_CCMR1_Input_fields
 .rodata.TIM11_CCMR1_Output_fields
                0x000000000800fef4       0x20 build/monitor/decoder/STM32F411.o
                0x000000000800fef4                TIM11_CCMR1_Output_fields
 .rodata.TIM11_CCR1_fields
                0x000000000800ff14        0x8 build/monitor/decoder/STM32F411.o
                0x000000000800ff14                TIM11_CCR1_fields
 .rodata.TIM11_CNT_fields
                0x000000000800ff1c        0x8 build/monitor/decoder/STM32F411.o
                0x000000000800ff1c                TIM11_CNT_fields
 .rodata.TIM11_CR1_fields
                0x000000000800ff24       0x28 build/monitor/decoder/STM32F411.o
                0x000000000800ff24                TIM11_CR1_fields
 .rodata.TIM11_DIER_fields
                0x000000000800ff4c       0x10 build/monitor/decoder/STM32F411.o
                0x000000000800ff4c                TIM11_DIER_fields
 .rodata.TIM11_EGR_fields
                0x000000000800ff5c       0x10 build/monitor/decoder/STM32F411.o
                0x000000000800ff5c                TIM11_EGR_fields
 .rodata.TIM11_OR_fields
                0x000000000800ff6c        0x8 build/monitor/decoder/STM32F411.o
                0x000000000800ff6c                TIM11_OR_fields
 .rodata.TIM11_PSC_fields
                0x000000000800ff74        0x8 build/monitor/decoder/STM32F411.o
                0x000000000800ff74                TIM11_PSC_fields
 .rodata.TIM11_SR_fields
                0x000000000800ff7c       0x18 build/monitor/decoder/STM32F411.o
                0x000000000800ff7c                TIM11_SR_fields
 .rodata.TIM11_registers
                0x000000000800ff94       0xc0 build/monitor/decoder/STM32F411.o
                0x000000000800ff94                TIM11_registers
 .rodata.TIM1_ARR_fields
                0x0000000008010054        0x8 build/monitor/decoder/STM32F411.o
                0x0000000008010054                TIM1_ARR_fields
 .rodata.TIM1_BDTR_fields
                0x000000000801005c       0x40 build/monitor/decoder/STM32F411.o
                0x000000000801005c                TIM1_BDTR_fields
 .rodata.TIM1_CCER_fields
                0x000000000801009c       0x70 build/monitor/decoder/STM32F411.o
                0x000000000801009c                TIM1_CCER_fields
 .rodata.TIM1_CCMR1_Input_fields
                0x000000000801010c       0x30 build/monitor/decoder/STM32F411.o
                0x000000000801010c                TIM1_CCMR1_Input_fields
 .rodata.TIM1_CCMR1_Output_fields
                0x000000000801013c       0x50 build/monitor/decoder/STM32F411.o
                0x000000000801013c                TIM1_CCMR1_Output_fields
 .rodata.TIM1_CCMR2_Input_fields
                0x000000000801018c       0x30 build/monitor/decoder/STM32F411.o
                0x000000000801018c                TIM1_CCMR2_Input_fields
 .rodata.TIM1_CCMR2_Output_fields
                0x00000000080101bc       0x50 build/monitor/decoder/STM32F411.o
                0x00000000080101bc                TIM1_CCMR2_Output_fields
 .rodata.TIM1_CCR1_fields
                0x000000000801020c        0x8 build/monitor/decoder/STM32F411.o
                0x000000000801020c                TIM1_CCR1_fields
 .rodata.TIM1_CCR2_fields
                0x0000000008010214        0x8 build/monitor/decoder/STM32F411.o
                0x0000000008010214                TIM1_CCR2_fields
 .rodata.TIM1_CCR3_fields
                0x000000000801021c        0x8 build/monitor/decoder/STM32F411.o
                0x000000000801021c                TIM1_CCR3_fields
 .rodata.TIM1_CCR4_fields
                0x0000000008010224        0x8 build/monitor/decoder/STM32F411.o
                0x0000000008010224                TIM1_CCR4_fields
 .rodata.TIM1_CNT_fields
                0x000000000801022c        0x8 build/monitor/decoder/STM32F411.o
                0x000000000801022c                TIM1_CNT_fields
 .rodata.TIM1_CR1_fields
                0x0000000008010234       0x40 build/monitor/decoder/STM32F411.o
                0x0000000008010234                TIM1_CR1_fields
 .rodata.TIM1_CR2_fields
                0x0000000008010274       0x60 build/monitor/decoder/STM32F411.o
                0x0000000008010274                TIM1_CR2_fields
 .rodata.TIM1_DCR_fields
                0x00000000080102d4       0x10 build/monitor/decoder/STM32F411.o
                0x00000000080102d4                TIM1_DCR_fields
 .rodata.TIM1_DIER_fields
                0x00000000080102e4       0x78 build/monitor/decoder/STM32F411.o
                0x00000000080102e4                TIM1_DIER_fields
 .rodata.TIM1_DMAR_fields
                0x000000000801035c        0x8 build/monitor/decoder/STM32F411.o
                0x000000000801035c                TIM1_DMAR_fields
 .rodata.TIM1_EGR_fields
                0x0000000008010364       0x40 build/monitor/decoder/STM32F411.o
                0x0000000008010364                TIM1_EGR_fields
 .rodata.TIM1_PSC_fields
                0x00000000080103a4        0x8 build/monitor/decoder/STM32F411.o
                0x00000000080103a4                TIM1_PSC_fields
 .rodata.TIM1_RCR_fields
                0x00000000080103ac        0x8 build/monitor/decoder/STM32F411.o
                0x00000000080103ac                TIM1_RCR_fields
 .rodata.TIM1_SMCR_fields
                0x00000000080103b4       0x38 build/monitor/decoder/STM32F411.o
                0x00000000080103b4                TIM1_SMCR_fields
 .rodata.TIM1_SR_fields
                0x00000000080103ec       0x60 build/monitor/decoder/STM32F411.o
                0x00000000080103ec                TIM1_SR_fields
 .rodata.TIM1_registers
                0x000000000801044c      0x160 build/monitor/decoder/STM32F411.o
                0x000000000801044c                TIM1_registers
 .rodata.TIM2_ARR_fields
                0x00000000080105ac       0x10 build/monitor/decoder/STM32F411.o
                0x00000000080105ac                TIM2_ARR_fields
 .rodata.TIM2_CCER_fields
                0x00000000080105bc       0x60 build/monitor/decoder/STM32F411.o
                0x00000000080105bc                TIM2_CCER_fields
 .rodata.TIM2_CCMR1_Input_fields
                0x000000000801061c       0x30 build/monitor/decoder/STM32F411.o
                0x000000000801061c                TIM2_CCMR1_Input_fields
 .rodata.TIM2_CCMR1_Output_fields
                0x000000000801064c       0x50 build/monitor/decoder/STM32F411.o
                0x000000000801064c                TIM2_CCMR1_Output_fields
 .rodata.TIM2_CCMR2_Input_fields
                0x000000000801069c       0x30 build/monitor/decoder/STM32F411.o
                0x000000000801069c                TIM2_CCMR2_Input_fields
 .rodata.TIM2_CCMR2_Output_fields
                0x00000000080106cc       0x50 build/monitor/decoder/STM32F411.o
                0x00000000080106cc                TIM2_CCMR2_Output_fields
 .rodata.TIM2_CCR1_fields
                0x000000000801071c       0x10 build/monitor/decoder/STM32F411.o
                0x000000000801071c                TIM2_CCR1_fields
 .rodata.TIM2_CCR2_fields
                0x000000000801072c       0x10 build/monitor/decoder/STM32F411.o
                0x000000000801072c                TIM2_CCR2_fields
 .rodata.TIM2_CCR3_fields
                0x000000000801073c       0x10 build/monitor/decoder/STM32F411.o
                0x000000000801073c                TIM2_CCR3_fields
 .rodata.TIM2_CCR4_fields
                0x000000000801074c       0x10 build/monitor/decoder/STM32F411.o
                0x000000000801074c                TIM2_CCR4_fields
 .rodata.TIM2_CNT_fields
                0x000000000801075c       0x10 build/monitor/decoder/STM32F411.o
                0x000000000801075c                TIM2_CNT_fields
 .rodata.TIM2_CR1_fields
                0x000000000801076c       0x40 build/monitor/decoder/STM32F411.o
                0x000000000801076c                TIM2_CR1_fields
 .rodata.TIM2_CR2_fields
                0x00000000080107ac       0x18 build/monitor/decoder/STM32F411.o
                0x00000000080107ac                TIM2_CR2_fields
 .rodata.TIM2_DCR_fields
                0x00000000080107c4       0x10 build/monitor/decoder/STM32F411.o
                0x00000000080107c4                TIM2_DCR_fields
 .rodata.TIM2_DIER_fields
                0x00000000080107d4       0x60 build/monitor/decoder/STM32F411.o
                0x00000000080107d4                TIM2_DIER_fields
 .rodata.TIM2_DMAR_fields
                0x0000000008010834        0x8 build/monitor/decoder/STM32F411.o
                0x0000000008010834                TIM2_DMAR_fields
 .rodata.TIM2_EGR_fields
                0x000000000801083c       0x30 build/monitor/decoder/STM32F411.o
                0x000000000801083c                TIM2_EGR_fields
 .rodata.TIM2_OR_fields
                0x000000000801086c        0x8 build/monitor/decoder/STM32F411.o
                0x000000000801086c                TIM2_OR_fields
 .rodata.TIM2_PSC_fields
                0x0000000008010874        0x8 build/monitor/decoder/STM32F411.o
                0x0000000008010874                TIM2_PSC_fields
 .rodata.TIM2_SMCR_fields
                0x000000000801087c       0x38 build/monitor/decoder/STM32F411.o
                0x000000000801087c                TIM2_SMCR_fields
 .rodata.TIM2_SR_fields
                0x00000000080108b4       0x50 build/monitor/decoder/STM32F411.o
                0x00000000080108b4                TIM2_SR_fields
 .rodata.TIM2_registers
                0x0000000008010904      0x150 build/monitor/decoder/STM32F411.o
                0x0000000008010904                TIM2_registers
 .rodata.TIM3_ARR_fields
                0x0000000008010a54       0x10 build/monitor/decoder/STM32F411.o
                0x0000000008010a54                TIM3_ARR_fields
 .rodata.TIM3_CCER_fields
                0x0000000008010a64       0x60 build/monitor/decoder/STM32F411.o
                0x0000000008010a64                TIM3_CCER_fields
 .rodata.TIM3_CCMR1_Input_fields
                0x0000000008010ac4       0x30 build/monitor/decoder/STM32F411.o
                0x0000000008010ac4                TIM3_CCMR1_Input_fields
 .rodata.TIM3_CCMR1_Output_fields
                0x0000000008010af4       0x50 build/monitor/decoder/STM32F411.o
                0x0000000008010af4                TIM3_CCMR1_Output_fields
 .rodata.TIM3_CCMR2_Input_fields
                0x0000000008010b44       0x30 build/monitor/decoder/STM32F411.o
                0x0000000008010b44                TIM3_CCMR2_Input_fields
 .rodata.TIM3_CCMR2_Output_fields
                0x0000000008010b74       0x50 build/monitor/decoder/STM32F411.o
                0x0000000008010b74                TIM3_CCMR2_Output_fields
 .rodata.TIM3_CCR1_fields
                0x0000000008010bc4       0x10 build/monitor/decoder/STM32F411.o
                0x0000000008010bc4                TIM3_CCR1_fields
 .rodata.TIM3_CCR2_fields
                0x0000000008010bd4       0x10 build/monitor/decoder/STM32F411.o
                0x0000000008010bd4                TIM3_CCR2_fields
 .rodata.TIM3_CCR3_fields
                0x0000000008010be4       0x10 build/monitor/decoder/STM32F411.o
                0x0000000008010be4                TIM3_CCR3_fields
 .rodata.TIM3_CCR4_fields
                0x0000000008010bf4       0x10 build/monitor/decoder/STM32F411.o
                0x0000000008010bf4                TIM3_CCR4_fields
 .rodata.TIM3_CNT_fields
                0x0000000008010c04       0x10 build/monitor/decoder/STM32F411.o
                0x0000000008010c04                TIM3_CNT_fields
 .rodata.TIM3_CR1_fields
                0x0000000008010c14       0x40 build/monitor/decoder/STM32F411.o
                0x0000000008010c14                TIM3_CR1_fields
 .rodata.TIM3_CR2_fields
                0x0000000008010c54       0x18 build/monitor/decoder/STM32F411.o
                0x0000000008010c54                TIM3_CR2_fields
 .rodata.TIM3_DCR_fields
                0x0000000008010c6c       0x10 build/monitor/decoder/STM32F411.o
                0x0000000008010c6c                TIM3_DCR_fields
 .rodata.TIM3_DIER_fields
                0x0000000008010c7c       0x60 build/monitor/decoder/STM32F411.o
                0x0000000008010c7c                TIM3_DIER_fields
 .rodata.TIM3_DMAR_fields
                0x0000000008010cdc        0x8 build/monitor/decoder/STM32F411.o
                0x0000000008010cdc                TIM3_DMAR_fields
 .rodata.TIM3_EGR_fields
                0x0000000008010ce4       0x30 build/monitor/decoder/STM32F411.o
                0x0000000008010ce4                TIM3_EGR_fields
 .rodata.TIM3_PSC_fields
                0x0000000008010d14        0x8 build/monitor/decoder/STM32F411.o
                0x0000000008010d14                TIM3_PSC_fields
 .rodata.TIM3_SMCR_fields
                0x0000000008010d1c       0x38 build/monitor/decoder/STM32F411.o
                0x0000000008010d1c                TIM3_SMCR_fields
 .rodata.TIM3_SR_fields
                0x0000000008010d54       0x50 build/monitor/decoder/STM32F411.o
                0x0000000008010d54                TIM3_SR_fields
 .rodata.TIM3_registers
                0x0000000008010da4      0x140 build/monitor/decoder/STM32F411.o
                0x0000000008010da4                TIM3_registers
 .rodata.TIM5_ARR_fields
                0x0000000008010ee4       0x10 build/monitor/decoder/STM32F411.o
                0x0000000008010ee4                TIM5_ARR_fields
 .rodata.TIM5_CCER_fields
                0x0000000008010ef4       0x60 build/monitor/decoder/STM32F411.o
                0x0000000008010ef4                TIM5_CCER_fields
 .rodata.TIM5_CCMR1_Input_fields
                0x0000000008010f54       0x30 build/monitor/decoder/STM32F411.o
                0x0000000008010f54                TIM5_CCMR1_Input_fields
 .rodata.TIM5_CCMR1_Output_fields
                0x0000000008010f84       0x50 build/monitor/decoder/STM32F411.o
                0x0000000008010f84                TIM5_CCMR1_Output_fields
 .rodata.TIM5_CCMR2_Input_fields
                0x0000000008010fd4       0x30 build/monitor/decoder/STM32F411.o
                0x0000000008010fd4                TIM5_CCMR2_Input_fields
 .rodata.TIM5_CCMR2_Output_fields
                0x0000000008011004       0x50 build/monitor/decoder/STM32F411.o
                0x0000000008011004                TIM5_CCMR2_Output_fields
 .rodata.TIM5_CCR1_fields
                0x0000000008011054       0x10 build/monitor/decoder/STM32F411.o
                0x0000000008011054                TIM5_CCR1_fields
 .rodata.TIM5_CCR2_fields
                0x0000000008011064       0x10 build/monitor/decoder/STM32F411.o
                0x0000000008011064                TIM5_CCR2_fields
 .rodata.TIM5_CCR3_fields
                0x0000000008011074       0x10 build/monitor/decoder/STM32F411.o
                0x0000000008011074                TIM5_CCR3_fields
 .rodata.TIM5_CCR4_fields
                0x0000000008011084       0x10 build/monitor/decoder/STM32F411.o
                0x0000000008011084                TIM5_CCR4_fields
 .rodata.TIM5_CNT_fields
                0x0000000008011094       0x10 build/monitor/decoder/STM32F411.o
                0x0000000008011094                TIM5_CNT_fields
 .rodata.TIM5_CR1_fields
                0x00000000080110a4       0x40 build/monitor/decoder/STM32F411.o
                0x00000000080110a4                TIM5_CR1_fields
 .rodata.TIM5_CR2_fields
                0x00000000080110e4       0x18 build/monitor/decoder/STM32F411.o
                0x00000000080110e4                TIM5_CR2_fields
 .rodata.TIM5_DCR_fields
                0x00000000080110fc       0x10 build/monitor/decoder/STM32F411.o
                0x00000000080110fc                TIM5_DCR_fields
 .rodata.TIM5_DIER_fields
                0x000000000801110c       0x60 build/monitor/decoder/STM32F411.o
                0x000000000801110c                TIM5_DIER_fields
 .rodata.TIM5_DMAR_fields
                0x000000000801116c        0x8 build/monitor/decoder/STM32F411.o
                0x000000000801116c                TIM5_DMAR_fields
 .rodata.TIM5_EGR_fields
                0x0000000008011174       0x30 build/monitor/decoder/STM32F411.o
                0x0000000008011174                TIM5_EGR_fields
 .rodata.TIM5_OR_fields
                0x00000000080111a4        0x8 build/monitor/decoder/STM32F411.o
                0x00000000080111a4                TIM5_OR_fields
 .rodata.TIM5_PSC_fields
                0x00000000080111ac        0x8 build/monitor/decoder/STM32F411.o
                0x00000000080111ac                TIM5_PSC_fields
 .rodata.TIM5_SMCR_fields
                0x00000000080111b4       0x38 build/monitor/decoder/STM32F411.o
                0x00000000080111b4                TIM5_SMCR_fields
 .rodata.TIM5_SR_fields
                0x00000000080111ec       0x50 build/monitor/decoder/STM32F411.o
                0x00000000080111ec                TIM5_SR_fields
 .rodata.TIM5_registers
                0x000000000801123c      0x150 build/monitor/decoder/STM32F411.o
                0x000000000801123c                TIM5_registers
 .rodata.TIM9_ARR_fields
                0x000000000801138c        0x8 build/monitor/decoder/STM32F411.o
                0x000000000801138c                TIM9_ARR_fields
 .rodata.TIM9_CCER_fields
                0x0000000008011394       0x30 build/monitor/decoder/STM32F411.o
                0x0000000008011394                TIM9_CCER_fields
 .rodata.TIM9_CCMR1_Input_fields
                0x00000000080113c4       0x30 build/monitor/decoder/STM32F411.o
                0x00000000080113c4                TIM9_CCMR1_Input_fields
 .rodata.TIM9_CCMR1_Output_fields
                0x00000000080113f4       0x40 build/monitor/decoder/STM32F411.o
                0x00000000080113f4                TIM9_CCMR1_Output_fields
 .rodata.TIM9_CCR1_fields
                0x0000000008011434        0x8 build/monitor/decoder/STM32F411.o
                0x0000000008011434                TIM9_CCR1_fields
 .rodata.TIM9_CCR2_fields
                0x000000000801143c        0x8 build/monitor/decoder/STM32F411.o
                0x000000000801143c                TIM9_CCR2_fields
 .rodata.TIM9_CNT_fields
                0x0000000008011444        0x8 build/monitor/decoder/STM32F411.o
                0x0000000008011444                TIM9_CNT_fields
 .rodata.TIM9_CR1_fields
                0x000000000801144c       0x30 build/monitor/decoder/STM32F411.o
                0x000000000801144c                TIM9_CR1_fields
 .rodata.TIM9_CR2_fields
                0x000000000801147c        0x8 build/monitor/decoder/STM32F411.o
                0x000000000801147c                TIM9_CR2_fields
 .rodata.TIM9_DIER_fields
                0x0000000008011484       0x20 build/monitor/decoder/STM32F411.o
                0x0000000008011484                TIM9_DIER_fields
 .rodata.TIM9_EGR_fields
                0x00000000080114a4       0x20 build/monitor/decoder/STM32F411.o
                0x00000000080114a4                TIM9_EGR_fields
 .rodata.TIM9_PSC_fields
                0x00000000080114c4        0x8 build/monitor/decoder/STM32F411.o
                0x00000000080114c4                TIM9_PSC_fields
 .rodata.TIM9_SMCR_fields
                0x00000000080114cc       0x18 build/monitor/decoder/STM32F411.o
                0x00000000080114cc                TIM9_SMCR_fields
 .rodata.TIM9_SR_fields
                0x00000000080114e4       0x30 build/monitor/decoder/STM32F411.o
                0x00000000080114e4                TIM9_SR_fields
 .rodata.TIM9_registers
                0x0000000008011514       0xe0 build/monitor/decoder/STM32F411.o
                0x0000000008011514                TIM9_registers
 .rodata.USART1_BRR_fields
                0x00000000080115f4       0x10 build/monitor/decoder/STM32F411.o
                0x00000000080115f4                USART1_BRR_fields
 .rodata.USART1_CR1_fields
                0x0000000008011604       0x78 build/monitor/decoder/STM32F411.o
                0x0000000008011604                USART1_CR1_fields
 .rodata.USART1_CR2_fields
                0x000000000801167c       0x48 build/monitor/decoder/STM32F411.o
                0x000000000801167c                USART1_CR2_fields
 .rodata.USART1_CR3_fields
                0x00000000080116c4       0x60 build/monitor/decoder/STM32F411.o
                0x00000000080116c4                USART1_CR3_fields
 .rodata.USART1_DR_fields
                0x0000000008011724        0x8 build/monitor/decoder/STM32F411.o
                0x0000000008011724                USART1_DR_fields
 .rodata.USART1_GTPR_fields
                0x000000000801172c       0x10 build/monitor/decoder/STM32F411.o
                0x000000000801172c                USART1_GTPR_fields
 .rodata.USART1_SR_fields
                0x000000000801173c       0x50 build/monitor/decoder/STM32F411.o
                0x000000000801173c                USART1_SR_fields
 .rodata.USART1_registers
                0x000000000801178c       0x70 build/monitor/decoder/STM32F411.o
                0x000000000801178c                USART1_registers
 .rodata.WWDG_CFR_fields
                0x00000000080117fc       0x20 build/monitor/decoder/STM32F411.o
                0x00000000080117fc                WWDG_CFR_fields
 .rodata.WWDG_CR_fields
                0x000000000801181c       0x10 build/monitor/decoder/STM32F411.o
                0x000000000801181c                WWDG_CR_fields
 .rodata.WWDG_SR_fields
                0x000000000801182c        0x8 build/monitor/decoder/STM32F411.o
                0x000000000801182c                WWDG_SR_fields
 .rodata.WWDG_registers
                0x0000000008011834       0x30 build/monitor/decoder/STM32F411.o
                0x0000000008011834                WWDG_registers
 .rodata._write_r.str1.1
                0x0000000008011864     0x278b build/syscall.o
                                          0x2 (size before relaxing)
 .rodata.CmdR.str1.1
                0x0000000008011864       0xbf build/monitor/monitor.o
                                         0xc2 (size before relaxing)
 .rodata.str1.1
                0x0000000008011923       0x3b build/monitor/monitor.o
                                         0x3d (size before relaxing)
 .rodata.parse.str1.1
                0x000000000801195e       0xd6 build/monitor/parser.o
 .rodata.TaskInput.str1.1
                0x0000000008011a34        0xb build/monitor/parser.o
                                          0xe (size before relaxing)
 .rodata.str1.1
                0x0000000008011a3f       0x94 build/monitor/parser.o
 .rodata.__FUNCTION__.0
                0x0000000008011ad3        0x6 build/monitor/parser.o
 .rodata.DumpBuffer.str1.1
                0x0000000008011ad9       0x15 build/monitor/dump.o
                                         0x19 (size before relaxing)
 .rodata.CmdDump.str1.1
                0x0000000008011aee      0x1ca build/monitor/dump.o
 .rodata.str1.1
                0x0000000008011cb8       0x1c build/monitor/dump.o
                                         0x1e (size before relaxing)
 .rodata.CmdStats.str1.1
                0x0000000008011cd4       0xed build/monitor/terminal.o
 .rodata.CmdTransparent.str1.1
                0x0000000008011dc1       0x89 build/monitor/terminal.o
 .rodata.CmdReceive.str1.1
                0x0000000008011e4a       0x1b build/monitor/terminal.o
 .rodata.CmdSend.str1.1
                0x0000000008011e65       0x2a build/monitor/terminal.o
                                         0x2d (size before relaxing)
 .rodata.str1.1
                0x0000000008011e8f       0xd5 build/monitor/terminal.o
                                         0xda (size before relaxing)
 .rodata.TerminalInfo
                0x0000000008011f64       0x10 build/monitor/terminal.o
 .rodata.WDTCheckReset.str1.1
                0x0000000008011f74       0x9d build/monitor/wdog.o
 .rodata.CmdTasks.str1.1
                0x0000000008012011       0x31 build/monitor/tasking.o
 .rodata.str1.1
                0x0000000008012042       0x25 build/monitor/tasking.o
 .rodata.Default_IRQHandler.str1.1
                0x0000000008012067       0xe1 build/monitor/default.o
 .rodata.__FUNCTION__.0
                0x0000000008012148       0x13 build/monitor/default.o
 .rodata.Uncompress.str1.1
                0x000000000801215b       0x26 build/monitor/decoder/decoder.o
 .rodata.DecodeReadRegister.str1.1
                0x0000000008012181       0x35 build/monitor/decoder/decoder.o
 .rodata.DecodeField.str1.1
                0x00000000080121b6       0x35 build/monitor/decoder/decoder.o
 .rodata.DecodeRegister.str1.1
                0x00000000080121eb       0x3b build/monitor/decoder/decoder.o
 .rodata.DecodePeripheral.str1.1
                0x0000000008012226       0x28 build/monitor/decoder/decoder.o
 .rodata.DecodePrintPeripherals.str1.1
                0x000000000801224e        0x3 build/monitor/decoder/decoder.o
                                          0x9 (size before relaxing)
 .rodata.CmdDecode.str1.1
                0x0000000008012251      0x403 build/monitor/decoder/decoder.o
                                        0x405 (size before relaxing)
 .rodata.str1.1
                0x0000000008012654       0x21 build/monitor/decoder/decoder.o
                                         0x28 (size before relaxing)
 .rodata.AHBPrescTable
                0x0000000008012675       0x10 build/cubemx_stm32f411/Core/Src/system_stm32f4xx.o
                0x0000000008012675                AHBPrescTable
 .rodata.APBPrescTable
                0x0000000008012685        0x8 build/cubemx_stm32f411/Core/Src/system_stm32f4xx.o
                0x0000000008012685                APBPrescTable
 .rodata.VersionPrint.str1.1
                0x000000000801268d       0x10 build/version.o
 .rodata.str1.1
                0x000000000801269d       0x2b build/version.o
 .rodata.VersionBuildDateString
                0x00000000080126c8       0x19 build/version.o
                0x00000000080126c8                VersionBuildDateString
 .rodata.VersionBuildUser
                0x00000000080126e1        0x6 build/version.o
                0x00000000080126e1                VersionBuildUser
 .rodata._ctype_
                0x00000000080126e7      0x101 /usr/local/bin/../lib/gcc/arm-none-eabi/10.2.1/../../../../arm-none-eabi/lib/thumb/v7e-m+fp/hard/libg_nano.a(lib_a-ctype_.o)
                0x00000000080126e7                _ctype_
 .rodata.__sf_fake_stderr
                0x00000000080127e8       0x20 /usr/local/bin/../lib/gcc/arm-none-eabi/10.2.1/../../../../arm-none-eabi/lib/thumb/v7e-m+fp/hard/libg_nano.a(lib_a-findfp.o)
                0x00000000080127e8                __sf_fake_stderr
 .rodata.__sf_fake_stdin
                0x0000000008012808       0x20 /usr/local/bin/../lib/gcc/arm-none-eabi/10.2.1/../../../../arm-none-eabi/lib/thumb/v7e-m+fp/hard/libg_nano.a(lib_a-findfp.o)
                0x0000000008012808                __sf_fake_stdin
 .rodata.__sf_fake_stdout
                0x0000000008012828       0x20 /usr/local/bin/../lib/gcc/arm-none-eabi/10.2.1/../../../../arm-none-eabi/lib/thumb/v7e-m+fp/hard/libg_nano.a(lib_a-findfp.o)
                0x0000000008012828                __sf_fake_stdout
 .rodata._global_impure_ptr
                0x0000000008012848        0x4 /usr/local/bin/../lib/gcc/arm-none-eabi/10.2.1/../../../../arm-none-eabi/lib/thumb/v7e-m+fp/hard/libg_nano.a(lib_a-impure.o)
                0x0000000008012848                _global_impure_ptr
 .rodata._printf_float.str1.1
                0x000000000801284c       0x10 /usr/local/bin/../lib/gcc/arm-none-eabi/10.2.1/../../../../arm-none-eabi/lib/thumb/v7e-m+fp/hard/libg_nano.a(lib_a-nano-vfprintf_float.o)
                                         0x12 (size before relaxing)
 .rodata._printf_i.str1.1
                0x000000000801285c       0x22 /usr/local/bin/../lib/gcc/arm-none-eabi/10.2.1/../../../../arm-none-eabi/lib/thumb/v7e-m+fp/hard/libg_nano.a(lib_a-nano-vfprintf_i.o)
 .rodata.strtok.str1.1
                0x000000000801287e       0x96 /usr/local/bin/../lib/gcc/arm-none-eabi/10.2.1/../../../../arm-none-eabi/lib/thumb/v7e-m+fp/hard/libg_nano.a(lib_a-strtok.o)
 .rodata.__assert_func.str1.1
                0x0000000008012914       0x3c /usr/local/bin/../lib/gcc/arm-none-eabi/10.2.1/../../../../arm-none-eabi/lib/thumb/v7e-m+fp/hard/libg_nano.a(lib_a-assert.o)
                                         0x3d (size before relaxing)
 .rodata._dtoa_r.str1.1
                0x0000000008012950       0x9b /usr/local/bin/../lib/gcc/arm-none-eabi/10.2.1/../../../../arm-none-eabi/lib/thumb/v7e-m+fp/hard/libg_nano.a(lib_a-dtoa.o)
                                         0xb4 (size before relaxing)
 .rodata._setlocale_r.str1.1
                0x00000000080129eb        0x6 /usr/local/bin/../lib/gcc/arm-none-eabi/10.2.1/../../../../arm-none-eabi/lib/thumb/v7e-m+fp/hard/libg_nano.a(lib_a-locale.o)
                                          0x9 (size before relaxing)
 .rodata.str1.1
                0x00000000080129f1        0x6 /usr/local/bin/../lib/gcc/arm-none-eabi/10.2.1/../../../../arm-none-eabi/lib/thumb/v7e-m+fp/hard/libg_nano.a(lib_a-locale.o)
                                          0x2 (size before relaxing)
 .rodata._Balloc.str1.1
                0x00000000080129f1       0x7e /usr/local/bin/../lib/gcc/arm-none-eabi/10.2.1/../../../../arm-none-eabi/lib/thumb/v7e-m+fp/hard/libg_nano.a(lib_a-mprec.o)
                                         0x95 (size before relaxing)
 .rodata.__multadd.str1.1
                0x0000000008012a6f       0x11 /usr/local/bin/../lib/gcc/arm-none-eabi/10.2.1/../../../../arm-none-eabi/lib/thumb/v7e-m+fp/hard/libg_nano.a(lib_a-mprec.o)
 *fill*         0x0000000008012a6f        0x1 
 .rodata.__mprec_bigtens
                0x0000000008012a70       0x28 /usr/local/bin/../lib/gcc/arm-none-eabi/10.2.1/../../../../arm-none-eabi/lib/thumb/v7e-m+fp/hard/libg_nano.a(lib_a-mprec.o)
                0x0000000008012a70                __mprec_bigtens
 .rodata.__mprec_tens
                0x0000000008012a98       0xc8 /usr/local/bin/../lib/gcc/arm-none-eabi/10.2.1/../../../../arm-none-eabi/lib/thumb/v7e-m+fp/hard/libg_nano.a(lib_a-mprec.o)
                0x0000000008012a98                __mprec_tens
 .rodata.p05.0  0x0000000008012b60        0xc /usr/local/bin/../lib/gcc/arm-none-eabi/10.2.1/../../../../arm-none-eabi/lib/thumb/v7e-m+fp/hard/libg_nano.a(lib_a-mprec.o)
 .rodata._svfprintf_r.str1.1
                0x0000000008012b6c       0x11 /usr/local/bin/../lib/gcc/arm-none-eabi/10.2.1/../../../../arm-none-eabi/lib/thumb/v7e-m+fp/hard/libg_nano.a(lib_a-nano-svfprintf.o)
 .rodata._vfprintf_r.str1.1
                0x0000000008012b7d       0x11 /usr/local/bin/../lib/gcc/arm-none-eabi/10.2.1/../../../../arm-none-eabi/lib/thumb/v7e-m+fp/hard/libg_nano.a(lib_a-nano-vfprintf.o)
                0x0000000008012b90                . = ALIGN (0x4)
 *fill*         0x0000000008012b7d        0x3 
                0x0000000008012b80                _tasktable_start = .
 *(SORT_BY_NAME(.tasktable.*))
 .tasktable.TaskInput
                0x0000000008012b80       0x18 build/monitor/parser.o
                0x0000000008012b80                TaskInputTask
                0x0000000008012b98                _tasktable_end = .
                0x0000000008012b98                . = ALIGN (0x4)
                0x0000000008012b98                _parsetable_start = .
 *(SORT_BY_NAME(.parsetable.*))
 .parsetable.adc
                0x0000000008012b98        0xc build/adc_example.o
                0x0000000008012b98                AdcEventE
 .parsetable.cmdtest
                0x0000000008012ba4        0xc build/mytest.o
                0x0000000008012ba4                CmdTestE
 .parsetable.d  0x0000000008012bb0        0xc build/monitor/dump.o
                0x0000000008012bb0                CmdDumpE
 .parsetable.decode
                0x0000000008012bbc        0xc build/monitor/decoder/decoder.o
                0x0000000008012bbc                CmdDecodeE
 .parsetable.led
                0x0000000008012bc8        0xc build/my_main.o
                0x0000000008012bc8                CmdLedE
 .parsetable.r  0x0000000008012bd4        0xc build/monitor/monitor.o
                0x0000000008012bd4                CmdRE
 .parsetable.receive
                0x0000000008012be0        0xc build/monitor/terminal.o
                0x0000000008012be0                CmdReceiveE
 .parsetable.send
                0x0000000008012bec        0xc build/monitor/terminal.o
                0x0000000008012bec                CmdSendE
 .parsetable.tasks
                0x0000000008012bf8        0xc build/monitor/tasking.o
                0x0000000008012bf8                CmdTasksE
 .parsetable.termstat
                0x0000000008012c04        0xc build/monitor/terminal.o
                0x0000000008012c04                CmdStatsE
 .parsetable.transparent
                0x0000000008012c10        0xc build/monitor/terminal.o
                0x0000000008012c10                CmdTransparentE
 .parsetable.version
                0x0000000008012c1c        0xc build/version.o
                0x0000000008012c1c                CmdVersionE
 .parsetable.w  0x0000000008012c28        0xc build/monitor/monitor.o
                0x0000000008012c28                CmdWE
                0x0000000008012c34        0x4 LONG 0x0
                0x0000000008012c38        0x4 LONG 0x0
                0x0000000008012c3c        0x4 LONG 0x0
                0x0000000008012c40                _parsetable_end = .
                0x0000000008012c40                . = ALIGN (0x4)

.ARM.extab
 *(.ARM.extab* .gnu.linkonce.armextab.*)

.ARM            0x0000000008012c40        0x8
                0x0000000008012c40                __exidx_start = .
 *(.ARM.exidx*)
 .ARM.exidx     0x0000000008012c40        0x8 /usr/local/bin/../lib/gcc/arm-none-eabi/10.2.1/thumb/v7e-m+fp/hard/libgcc.a(_udivmoddi4.o)
                0x0000000008012c48                __exidx_end = .

.rel.dyn        0x0000000008012c48        0x0
 .rel.iplt      0x0000000008012c48        0x0 /usr/local/bin/../lib/gcc/arm-none-eabi/10.2.1/thumb/v7e-m+fp/hard/crtbegin.o

.preinit_array  0x0000000008012c48        0x0
                0x0000000008012c48                PROVIDE (__preinit_array_start = .)
 *(.preinit_array*)
                0x0000000008012c48                PROVIDE (__preinit_array_end = .)

.init_array     0x0000000008012c48        0x4
                0x0000000008012c48                PROVIDE (__init_array_start = .)
 *(SORT_BY_NAME(.init_array.*))
 *(.init_array*)
 .init_array    0x0000000008012c48        0x4 /usr/local/bin/../lib/gcc/arm-none-eabi/10.2.1/thumb/v7e-m+fp/hard/crtbegin.o
                0x0000000008012c4c                PROVIDE (__init_array_end = .)

.fini_array     0x0000000008012c4c        0x4
                [!provide]                        PROVIDE (__fini_array_start = .)
 *(SORT_BY_NAME(.fini_array.*))
 *(.fini_array*)
 .fini_array    0x0000000008012c4c        0x4 /usr/local/bin/../lib/gcc/arm-none-eabi/10.2.1/thumb/v7e-m+fp/hard/crtbegin.o
                [!provide]                        PROVIDE (__fini_array_end = .)
                0x0000000008012c50                _sidata = LOADADDR (.data)

.data           0x0000000020000000      0x384 load address 0x0000000008012c50
                0x0000000020000000                . = ALIGN (0x4)
                0x0000000020000000                _sdata = .
 *(.data)
 .data          0x0000000020000000        0x4 build/mycode.o
                0x0000000020000000                myTickCount
 *(.data*)
 .data.InterruptNames
                0x0000000020000004      0x194 build/monitor/decoder/STM32F411.o
                0x0000000020000004                InterruptNames
 .data.buf.2    0x0000000020000198        0x4 build/monitor/parser.o
 .data.printPrompt.4
                0x000000002000019c        0x4 build/monitor/parser.o
 .data.count.0  0x00000000200001a0        0x4 build/monitor/dump.o
 .data.SystemCoreClock
                0x00000000200001a4        0x4 build/cubemx_stm32f411/Core/Src/system_stm32f4xx.o
                0x00000000200001a4                SystemCoreClock
 .data.uwTickFreq
                0x00000000200001a8        0x1 build/cubemx_stm32f411/Drivers/STM32F4xx_HAL_Driver/Src/stm32f4xx_hal.o
                0x00000000200001a8                uwTickFreq
 *fill*         0x00000000200001a9        0x3 
 .data.uwTickPrio
                0x00000000200001ac        0x4 build/cubemx_stm32f411/Drivers/STM32F4xx_HAL_Driver/Src/stm32f4xx_hal.o
                0x00000000200001ac                uwTickPrio
 .data._impure_ptr
                0x00000000200001b0        0x4 /usr/local/bin/../lib/gcc/arm-none-eabi/10.2.1/../../../../arm-none-eabi/lib/thumb/v7e-m+fp/hard/libg_nano.a(lib_a-impure.o)
                0x00000000200001b0                _impure_ptr
 .data.impure_data
                0x00000000200001b4       0x60 /usr/local/bin/../lib/gcc/arm-none-eabi/10.2.1/../../../../arm-none-eabi/lib/thumb/v7e-m+fp/hard/libg_nano.a(lib_a-impure.o)
 .data.__global_locale
                0x0000000020000214      0x16c /usr/local/bin/../lib/gcc/arm-none-eabi/10.2.1/../../../../arm-none-eabi/lib/thumb/v7e-m+fp/hard/libg_nano.a(lib_a-locale.o)
                0x0000000020000214                __global_locale
                0x0000000020000380                . = ALIGN (0x4)
                0x0000000020000380                _taskstate_start = .
 *(SORT_BY_NAME(.taskstate.*))
 .taskstate.TaskInput
                0x0000000020000380        0x4 build/monitor/parser.o
                0x0000000020000380                TaskInputTaskState
                0x0000000020000384                _taskstate_end = .
                0x0000000020000384                . = ALIGN (0x4)
                0x0000000020000384                _edata = .

.igot.plt       0x0000000020000384        0x0 load address 0x0000000008012fd4
 .igot.plt      0x0000000020000384        0x0 /usr/local/bin/../lib/gcc/arm-none-eabi/10.2.1/thumb/v7e-m+fp/hard/crtbegin.o
                0x0000000020000384                . = ALIGN (0x4)

.bss            0x0000000020000384      0x9d0 load address 0x0000000008012fd4
                0x0000000020000384                _sbss = .
                0x0000000020000384                __bss_start__ = _sbss
 *(.bss)
 .bss           0x0000000020000384       0x1c /usr/local/bin/../lib/gcc/arm-none-eabi/10.2.1/thumb/v7e-m+fp/hard/crtbegin.o
 *(.bss*)
 .bss.LedState.0
                0x00000000200003a0        0x4 build/mytest.o
 .bss.hdac1     0x00000000200003a4       0x48 build/adc_example.o
                0x00000000200003a4                hdac1
 .bss.heap_end.0
                0x00000000200003ec        0x4 build/syscall.o
 .bss.cmdArgs   0x00000000200003f0        0x4 build/monitor/parser.o
 .bss.count.3   0x00000000200003f4        0x4 build/monitor/parser.o
 .bss.crReceived
                0x00000000200003f8        0x4 build/monitor/parser.o
 .bss.input     0x00000000200003fc       0x50 build/monitor/parser.o
                0x00000000200003fc                input
 .bss.input_b   0x000000002000044c       0x50 build/monitor/parser.o
                0x000000002000044c                input_b
 .bss.saved.1   0x000000002000049c        0x4 build/monitor/parser.o
 .bss.address.1
                0x00000000200004a0        0x4 build/monitor/dump.o
 .bss.TerminalState
                0x00000000200004a4      0x834 build/monitor/terminal.o
 .bss.AccumTicks
                0x0000000020000cd8        0x4 build/monitor/tasking.o
 .bss.buf.0     0x0000000020000cdc       0x14 build/monitor/decoder/decoder.o
 .bss.hiwdg     0x0000000020000cf0        0xc build/cubemx_stm32f411/Core/Src/main.o
                0x0000000020000cf0                hiwdg
 .bss.huart2    0x0000000020000cfc       0x44 build/cubemx_stm32f411/Core/Src/main.o
                0x0000000020000cfc                huart2
 .bss.uwTick    0x0000000020000d40        0x4 build/cubemx_stm32f411/Drivers/STM32F4xx_HAL_Driver/Src/stm32f4xx_hal.o
                0x0000000020000d40                uwTick
 .bss.__lock___malloc_recursive_mutex
                0x0000000020000d44        0x1 /usr/local/bin/../lib/gcc/arm-none-eabi/10.2.1/../../../../arm-none-eabi/lib/thumb/v7e-m+fp/hard/libg_nano.a(lib_a-lock.o)
                0x0000000020000d44                __lock___malloc_recursive_mutex
 .bss.__lock___sfp_recursive_mutex
                0x0000000020000d45        0x1 /usr/local/bin/../lib/gcc/arm-none-eabi/10.2.1/../../../../arm-none-eabi/lib/thumb/v7e-m+fp/hard/libg_nano.a(lib_a-lock.o)
                0x0000000020000d45                __lock___sfp_recursive_mutex
 .bss.__lock___sinit_recursive_mutex
                0x0000000020000d46        0x1 /usr/local/bin/../lib/gcc/arm-none-eabi/10.2.1/../../../../arm-none-eabi/lib/thumb/v7e-m+fp/hard/libg_nano.a(lib_a-lock.o)
                0x0000000020000d46                __lock___sinit_recursive_mutex
 *fill*         0x0000000020000d47        0x1 
 .bss.__malloc_free_list
                0x0000000020000d48        0x4 /usr/local/bin/../lib/gcc/arm-none-eabi/10.2.1/../../../../arm-none-eabi/lib/thumb/v7e-m+fp/hard/libg_nano.a(lib_a-nano-mallocr.o)
                0x0000000020000d48                __malloc_free_list
 .bss.__malloc_sbrk_start
                0x0000000020000d4c        0x4 /usr/local/bin/../lib/gcc/arm-none-eabi/10.2.1/../../../../arm-none-eabi/lib/thumb/v7e-m+fp/hard/libg_nano.a(lib_a-nano-mallocr.o)
                0x0000000020000d4c                __malloc_sbrk_start
 .bss.errno     0x0000000020000d50        0x4 /usr/local/bin/../lib/gcc/arm-none-eabi/10.2.1/../../../../arm-none-eabi/lib/thumb/v7e-m+fp/hard/libg_nano.a(lib_a-reent.o)
                0x0000000020000d50                errno
 *(COMMON)
                0x0000000020000d54                . = ALIGN (0x4)
                0x0000000020000d54                _ebss = .
                0x0000000020000d54                __bss_end__ = _ebss

._user_heap_stack
                0x0000000020000d54      0x604 load address 0x0000000008012fd4
                0x0000000020000d58                . = ALIGN (0x8)
 *fill*         0x0000000020000d54        0x4 
                0x0000000020000d58                PROVIDE (end = .)
                [!provide]                        PROVIDE (_end = .)
                0x0000000020000f58                . = (. + _Min_Heap_Size)
 *fill*         0x0000000020000d58      0x200 
                0x0000000020001358                . = (. + _Min_Stack_Size)
 *fill*         0x0000000020000f58      0x400 
                0x0000000020001358                . = ALIGN (0x8)

/DISCARD/
 libc.a(*)
 libm.a(*)
 libgcc.a(*)

.ARM.attributes
                0x0000000000000000       0x30
 *(.ARM.attributes)
 .ARM.attributes
                0x0000000000000000       0x1e /usr/local/bin/../lib/gcc/arm-none-eabi/10.2.1/thumb/v7e-m+fp/hard/crti.o
 .ARM.attributes
                0x000000000000001e       0x34 /usr/local/bin/../lib/gcc/arm-none-eabi/10.2.1/thumb/v7e-m+fp/hard/crtbegin.o
 .ARM.attributes
                0x0000000000000052       0x34 build/my_main.o
 .ARM.attributes
                0x0000000000000086       0x25 build/mycode.o
 .ARM.attributes
                0x00000000000000ab       0x34 build/mytest.o
 .ARM.attributes
                0x00000000000000df       0x34 build/adc_example.o
 .ARM.attributes
                0x0000000000000113       0x39 build/monitor/decoder/STM32F411.o
 .ARM.attributes
                0x000000000000014c       0x21 build/cubemx_stm32f411/startup_stm32f411xe.o
 .ARM.attributes
                0x000000000000016d       0x34 build/syscall.o
 .ARM.attributes
                0x00000000000001a1       0x34 build/monitor/monitor.o
 .ARM.attributes
                0x00000000000001d5       0x34 build/monitor/parser.o
 .ARM.attributes
                0x0000000000000209       0x34 build/monitor/dump.o
 .ARM.attributes
                0x000000000000023d       0x34 build/monitor/terminal.o
 .ARM.attributes
                0x0000000000000271       0x34 build/monitor/wdog.o
 .ARM.attributes
                0x00000000000002a5       0x34 build/monitor/tasking.o
 .ARM.attributes
                0x00000000000002d9       0x34 build/monitor/default.o
 .ARM.attributes
                0x000000000000030d       0x34 build/monitor/decoder/decoder.o
 .ARM.attributes
                0x0000000000000341       0x34 build/cubemx_stm32f411/Core/Src/main.o
 .ARM.attributes
                0x0000000000000375       0x34 build/cubemx_stm32f411/Core/Src/stm32f4xx_it.o
 .ARM.attributes
                0x00000000000003a9       0x34 build/cubemx_stm32f411/Core/Src/stm32f4xx_hal_msp.o
 .ARM.attributes
                0x00000000000003dd       0x34 build/cubemx_stm32f411/Core/Src/system_stm32f4xx.o
 .ARM.attributes
                0x0000000000000411       0x34 build/cubemx_stm32f411/Drivers/STM32F4xx_HAL_Driver/Src/stm32f4xx_hal_rcc.o
 .ARM.attributes
                0x0000000000000445       0x34 build/cubemx_stm32f411/Drivers/STM32F4xx_HAL_Driver/Src/stm32f4xx_hal.o
 .ARM.attributes
                0x0000000000000479       0x34 build/cubemx_stm32f411/Drivers/STM32F4xx_HAL_Driver/Src/stm32f4xx_hal_cortex.o
 .ARM.attributes
                0x00000000000004ad       0x34 build/cubemx_stm32f411/Drivers/STM32F4xx_HAL_Driver/Src/stm32f4xx_hal_uart.o
 .ARM.attributes
                0x00000000000004e1       0x34 build/cubemx_stm32f411/Drivers/STM32F4xx_HAL_Driver/Src/stm32f4xx_hal_gpio.o
 .ARM.attributes
                0x0000000000000515       0x34 build/cubemx_stm32f411/Drivers/STM32F4xx_HAL_Driver/Src/stm32f4xx_hal_iwdg.o
 .ARM.attributes
                0x0000000000000549       0x34 build/cubemx_stm32f411/Drivers/STM32F4xx_HAL_Driver/Src/stm32f4xx_hal_adc.o
 .ARM.attributes
                0x000000000000057d       0x34 build/version.o
 .ARM.attributes
                0x00000000000005b1       0x1e /usr/local/bin/../lib/gcc/arm-none-eabi/10.2.1/thumb/v7e-m+fp/hard/libgcc.a(_arm_addsubdf3.o)
 .ARM.attributes
                0x00000000000005cf       0x1e /usr/local/bin/../lib/gcc/arm-none-eabi/10.2.1/thumb/v7e-m+fp/hard/libgcc.a(_arm_fixdfsi.o)
 .ARM.attributes
                0x00000000000005ed       0x1e /usr/local/bin/../lib/gcc/arm-none-eabi/10.2.1/thumb/v7e-m+fp/hard/libgcc.a(_aeabi_uldivmod.o)
 .ARM.attributes
                0x000000000000060b       0x34 /usr/local/bin/../lib/gcc/arm-none-eabi/10.2.1/thumb/v7e-m+fp/hard/libgcc.a(_udivmoddi4.o)
 .ARM.attributes
                0x000000000000063f       0x1e /usr/local/bin/../lib/gcc/arm-none-eabi/10.2.1/thumb/v7e-m+fp/hard/libgcc.a(_dvmd_tls.o)
 .ARM.attributes
                0x000000000000065d       0x32 /usr/local/bin/../lib/gcc/arm-none-eabi/10.2.1/../../../../arm-none-eabi/lib/thumb/v7e-m+fp/hard/libg_nano.a(lib_a-ctype_.o)
 .ARM.attributes
                0x000000000000068f       0x34 /usr/local/bin/../lib/gcc/arm-none-eabi/10.2.1/../../../../arm-none-eabi/lib/thumb/v7e-m+fp/hard/libg_nano.a(lib_a-errno.o)
 .ARM.attributes
                0x00000000000006c3       0x34 /usr/local/bin/../lib/gcc/arm-none-eabi/10.2.1/../../../../arm-none-eabi/lib/thumb/v7e-m+fp/hard/libg_nano.a(lib_a-fflush.o)
 .ARM.attributes
                0x00000000000006f7       0x34 /usr/local/bin/../lib/gcc/arm-none-eabi/10.2.1/../../../../arm-none-eabi/lib/thumb/v7e-m+fp/hard/libg_nano.a(lib_a-findfp.o)
 .ARM.attributes
                0x000000000000072b       0x34 /usr/local/bin/../lib/gcc/arm-none-eabi/10.2.1/../../../../arm-none-eabi/lib/thumb/v7e-m+fp/hard/libg_nano.a(lib_a-fwalk.o)
 .ARM.attributes
                0x000000000000075f       0x32 /usr/local/bin/../lib/gcc/arm-none-eabi/10.2.1/../../../../arm-none-eabi/lib/thumb/v7e-m+fp/hard/libg_nano.a(lib_a-impure.o)
 .ARM.attributes
                0x0000000000000791       0x34 /usr/local/bin/../lib/gcc/arm-none-eabi/10.2.1/../../../../arm-none-eabi/lib/thumb/v7e-m+fp/hard/libg_nano.a(lib_a-init.o)
 .ARM.attributes
                0x00000000000007c5       0x34 /usr/local/bin/../lib/gcc/arm-none-eabi/10.2.1/../../../../arm-none-eabi/lib/thumb/v7e-m+fp/hard/libg_nano.a(lib_a-lock.o)
 .ARM.attributes
                0x00000000000007f9       0x34 /usr/local/bin/../lib/gcc/arm-none-eabi/10.2.1/../../../../arm-none-eabi/lib/thumb/v7e-m+fp/hard/libg_nano.a(lib_a-memset.o)
 .ARM.attributes
                0x000000000000082d       0x34 /usr/local/bin/../lib/gcc/arm-none-eabi/10.2.1/../../../../arm-none-eabi/lib/thumb/v7e-m+fp/hard/libg_nano.a(lib_a-nano-freer.o)
 .ARM.attributes
                0x0000000000000861       0x34 /usr/local/bin/../lib/gcc/arm-none-eabi/10.2.1/../../../../arm-none-eabi/lib/thumb/v7e-m+fp/hard/libg_nano.a(lib_a-nano-mallocr.o)
 .ARM.attributes
                0x0000000000000895       0x34 /usr/local/bin/../lib/gcc/arm-none-eabi/10.2.1/../../../../arm-none-eabi/lib/thumb/v7e-m+fp/hard/libg_nano.a(lib_a-nano-vfprintf_float.o)
 .ARM.attributes
                0x00000000000008c9       0x34 /usr/local/bin/../lib/gcc/arm-none-eabi/10.2.1/../../../../arm-none-eabi/lib/thumb/v7e-m+fp/hard/libg_nano.a(lib_a-nano-vfprintf_i.o)
 .ARM.attributes
                0x00000000000008fd       0x34 /usr/local/bin/../lib/gcc/arm-none-eabi/10.2.1/../../../../arm-none-eabi/lib/thumb/v7e-m+fp/hard/libg_nano.a(lib_a-printf.o)
 .ARM.attributes
                0x0000000000000931       0x34 /usr/local/bin/../lib/gcc/arm-none-eabi/10.2.1/../../../../arm-none-eabi/lib/thumb/v7e-m+fp/hard/libg_nano.a(lib_a-putchar.o)
 .ARM.attributes
                0x0000000000000965       0x34 /usr/local/bin/../lib/gcc/arm-none-eabi/10.2.1/../../../../arm-none-eabi/lib/thumb/v7e-m+fp/hard/libg_nano.a(lib_a-puts.o)
 .ARM.attributes
                0x0000000000000999       0x34 /usr/local/bin/../lib/gcc/arm-none-eabi/10.2.1/../../../../arm-none-eabi/lib/thumb/v7e-m+fp/hard/libg_nano.a(lib_a-setvbuf.o)
 .ARM.attributes
                0x00000000000009cd       0x34 /usr/local/bin/../lib/gcc/arm-none-eabi/10.2.1/../../../../arm-none-eabi/lib/thumb/v7e-m+fp/hard/libg_nano.a(lib_a-stdio.o)
 .ARM.attributes
                0x0000000000000a01       0x34 /usr/local/bin/../lib/gcc/arm-none-eabi/10.2.1/../../../../arm-none-eabi/lib/thumb/v7e-m+fp/hard/libg_nano.a(lib_a-strcasecmp.o)
 .ARM.attributes
                0x0000000000000a35       0x34 /usr/local/bin/../lib/gcc/arm-none-eabi/10.2.1/../../../../arm-none-eabi/lib/thumb/v7e-m+fp/hard/libg_nano.a(lib_a-strcpy.o)
 .ARM.attributes
                0x0000000000000a69       0x17 /usr/local/bin/../lib/gcc/arm-none-eabi/10.2.1/../../../../arm-none-eabi/lib/thumb/v7e-m+fp/hard/libg_nano.a(lib_a-strlen.o)
 .ARM.attributes
                0x0000000000000a80       0x34 /usr/local/bin/../lib/gcc/arm-none-eabi/10.2.1/../../../../arm-none-eabi/lib/thumb/v7e-m+fp/hard/libg_nano.a(lib_a-strtok.o)
 .ARM.attributes
                0x0000000000000ab4       0x34 /usr/local/bin/../lib/gcc/arm-none-eabi/10.2.1/../../../../arm-none-eabi/lib/thumb/v7e-m+fp/hard/libg_nano.a(lib_a-strtok_r.o)
 .ARM.attributes
                0x0000000000000ae8       0x34 /usr/local/bin/../lib/gcc/arm-none-eabi/10.2.1/../../../../arm-none-eabi/lib/thumb/v7e-m+fp/hard/libg_nano.a(lib_a-strtoul.o)
 .ARM.attributes
                0x0000000000000b1c       0x34 /usr/local/bin/../lib/gcc/arm-none-eabi/10.2.1/../../../../arm-none-eabi/lib/thumb/v7e-m+fp/hard/libg_nano.a(lib_a-vsnprintf.o)
 .ARM.attributes
                0x0000000000000b50       0x34 /usr/local/bin/../lib/gcc/arm-none-eabi/10.2.1/../../../../arm-none-eabi/lib/thumb/v7e-m+fp/hard/libg_nano.a(lib_a-wbuf.o)
 .ARM.attributes
                0x0000000000000b84       0x34 /usr/local/bin/../lib/gcc/arm-none-eabi/10.2.1/../../../../arm-none-eabi/lib/thumb/v7e-m+fp/hard/libg_nano.a(lib_a-wsetup.o)
 .ARM.attributes
                0x0000000000000bb8       0x34 /usr/local/bin/../lib/gcc/arm-none-eabi/10.2.1/../../../../arm-none-eabi/lib/thumb/v7e-m+fp/hard/libg_nano.a(lib_a-assert.o)
 .ARM.attributes
                0x0000000000000bec       0x34 /usr/local/bin/../lib/gcc/arm-none-eabi/10.2.1/../../../../arm-none-eabi/lib/thumb/v7e-m+fp/hard/libg_nano.a(lib_a-dtoa.o)
 .ARM.attributes
                0x0000000000000c20       0x34 /usr/local/bin/../lib/gcc/arm-none-eabi/10.2.1/../../../../arm-none-eabi/lib/thumb/v7e-m+fp/hard/libg_nano.a(lib_a-fprintf.o)
 .ARM.attributes
                0x0000000000000c54       0x34 /usr/local/bin/../lib/gcc/arm-none-eabi/10.2.1/../../../../arm-none-eabi/lib/thumb/v7e-m+fp/hard/libg_nano.a(lib_a-locale.o)
 .ARM.attributes
                0x0000000000000c88       0x34 /usr/local/bin/../lib/gcc/arm-none-eabi/10.2.1/../../../../arm-none-eabi/lib/thumb/v7e-m+fp/hard/libg_nano.a(lib_a-localeconv.o)
 .ARM.attributes
                0x0000000000000cbc       0x34 /usr/local/bin/../lib/gcc/arm-none-eabi/10.2.1/../../../../arm-none-eabi/lib/thumb/v7e-m+fp/hard/libg_nano.a(lib_a-makebuf.o)
 .ARM.attributes
                0x0000000000000cf0       0x34 /usr/local/bin/../lib/gcc/arm-none-eabi/10.2.1/../../../../arm-none-eabi/lib/thumb/v7e-m+fp/hard/libg_nano.a(lib_a-malloc.o)
 .ARM.attributes
                0x0000000000000d24       0x34 /usr/local/bin/../lib/gcc/arm-none-eabi/10.2.1/../../../../arm-none-eabi/lib/thumb/v7e-m+fp/hard/libg_nano.a(lib_a-mbtowc_r.o)
 .ARM.attributes
                0x0000000000000d58       0x1c /usr/local/bin/../lib/gcc/arm-none-eabi/10.2.1/../../../../arm-none-eabi/lib/thumb/v7e-m+fp/hard/libg_nano.a(lib_a-memchr.o)
 .ARM.attributes
                0x0000000000000d74       0x34 /usr/local/bin/../lib/gcc/arm-none-eabi/10.2.1/../../../../arm-none-eabi/lib/thumb/v7e-m+fp/hard/libg_nano.a(lib_a-memcpy-stub.o)
 .ARM.attributes
                0x0000000000000da8       0x34 /usr/local/bin/../lib/gcc/arm-none-eabi/10.2.1/../../../../arm-none-eabi/lib/thumb/v7e-m+fp/hard/libg_nano.a(lib_a-mlock.o)
 .ARM.attributes
                0x0000000000000ddc       0x34 /usr/local/bin/../lib/gcc/arm-none-eabi/10.2.1/../../../../arm-none-eabi/lib/thumb/v7e-m+fp/hard/libg_nano.a(lib_a-mprec.o)
 .ARM.attributes
                0x0000000000000e10       0x34 /usr/local/bin/../lib/gcc/arm-none-eabi/10.2.1/../../../../arm-none-eabi/lib/thumb/v7e-m+fp/hard/libg_nano.a(lib_a-nano-callocr.o)
 .ARM.attributes
                0x0000000000000e44       0x34 /usr/local/bin/../lib/gcc/arm-none-eabi/10.2.1/../../../../arm-none-eabi/lib/thumb/v7e-m+fp/hard/libg_nano.a(lib_a-nano-svfprintf.o)
 .ARM.attributes
                0x0000000000000e78       0x34 /usr/local/bin/../lib/gcc/arm-none-eabi/10.2.1/../../../../arm-none-eabi/lib/thumb/v7e-m+fp/hard/libg_nano.a(lib_a-nano-vfprintf.o)
 .ARM.attributes
                0x0000000000000eac       0x34 /usr/local/bin/../lib/gcc/arm-none-eabi/10.2.1/../../../../arm-none-eabi/lib/thumb/v7e-m+fp/hard/libg_nano.a(lib_a-putc.o)
 .ARM.attributes
                0x0000000000000ee0       0x34 /usr/local/bin/../lib/gcc/arm-none-eabi/10.2.1/../../../../arm-none-eabi/lib/thumb/v7e-m+fp/hard/libg_nano.a(lib_a-wctomb_r.o)
 .ARM.attributes
                0x0000000000000f14       0x34 /usr/local/bin/../lib/gcc/arm-none-eabi/10.2.1/../../../../arm-none-eabi/lib/thumb/v7e-m+fp/hard/libg_nano.a(lib_a-abort.o)
 .ARM.attributes
                0x0000000000000f48       0x34 /usr/local/bin/../lib/gcc/arm-none-eabi/10.2.1/../../../../arm-none-eabi/lib/thumb/v7e-m+fp/hard/libg_nano.a(lib_a-memmove.o)
 .ARM.attributes
                0x0000000000000f7c       0x34 /usr/local/bin/../lib/gcc/arm-none-eabi/10.2.1/../../../../arm-none-eabi/lib/thumb/v7e-m+fp/hard/libg_nano.a(lib_a-nano-reallocr.o)
 .ARM.attributes
                0x0000000000000fb0       0x34 /usr/local/bin/../lib/gcc/arm-none-eabi/10.2.1/../../../../arm-none-eabi/lib/thumb/v7e-m+fp/hard/libg_nano.a(lib_a-signal.o)
 .ARM.attributes
                0x0000000000000fe4       0x34 /usr/local/bin/../lib/gcc/arm-none-eabi/10.2.1/../../../../arm-none-eabi/lib/thumb/v7e-m+fp/hard/libg_nano.a(lib_a-signalr.o)
 .ARM.attributes
                0x0000000000001018       0x34 /usr/local/bin/../lib/gcc/arm-none-eabi/10.2.1/../../../../arm-none-eabi/lib/thumb/v7e-m+fp/hard/libg_nano.a(lib_a-nano-msizer.o)
 .ARM.attributes
                0x000000000000104c       0x34 /usr/local/bin/../lib/gcc/arm-none-eabi/10.2.1/../../../../arm-none-eabi/lib/thumb/v7e-m+fp/hard/libg_nano.a(lib_a-reent.o)
 .ARM.attributes
                0x0000000000001080       0x1e /usr/local/bin/../lib/gcc/arm-none-eabi/10.2.1/thumb/v7e-m+fp/hard/libgcc.a(_arm_muldivdf3.o)
 .ARM.attributes
                0x000000000000109e       0x1e /usr/local/bin/../lib/gcc/arm-none-eabi/10.2.1/thumb/v7e-m+fp/hard/libgcc.a(_arm_cmpdf2.o)
 .ARM.attributes
                0x00000000000010bc       0x1e /usr/local/bin/../lib/gcc/arm-none-eabi/10.2.1/thumb/v7e-m+fp/hard/libgcc.a(_arm_unorddf2.o)
 .ARM.attributes
                0x00000000000010da       0x1e /usr/local/bin/../lib/gcc/arm-none-eabi/10.2.1/thumb/v7e-m+fp/hard/crtn.o
OUTPUT(adcLab3.elf elf32-littlearm)
LOAD linker stubs
LOAD /usr/local/bin/../lib/gcc/arm-none-eabi/10.2.1/../../../../arm-none-eabi/lib/thumb/v7e-m+fp/hard/libc.a
LOAD /usr/local/bin/../lib/gcc/arm-none-eabi/10.2.1/../../../../arm-none-eabi/lib/thumb/v7e-m+fp/hard/libm.a
LOAD /usr/local/bin/../lib/gcc/arm-none-eabi/10.2.1/thumb/v7e-m+fp/hard/libgcc.a

.debug_info     0x0000000000000000    0x1484c
 .debug_info    0x0000000000000000      0x41f build/my_main.o
 .debug_info    0x000000000000041f       0x26 build/mycode.o
 .debug_info    0x0000000000000445      0x247 build/mytest.o
 .debug_info    0x000000000000068c     0x15f6 build/adc_example.o
 .debug_info    0x0000000000001c82     0x2fdf build/monitor/decoder/STM32F411.o
 .debug_info    0x0000000000004c61       0x22 build/cubemx_stm32f411/startup_stm32f411xe.o
 .debug_info    0x0000000000004c83      0xe0f build/syscall.o
 .debug_info    0x0000000000005a92      0x36a build/monitor/monitor.o
 .debug_info    0x0000000000005dfc      0xcd8 build/monitor/parser.o
 .debug_info    0x0000000000006ad4      0x567 build/monitor/dump.o
 .debug_info    0x000000000000703b     0x178f build/monitor/terminal.o
 .debug_info    0x00000000000087ca      0x51e build/monitor/wdog.o
 .debug_info    0x0000000000008ce8      0x42a build/monitor/tasking.o
 .debug_info    0x0000000000009112      0x386 build/monitor/default.o
 .debug_info    0x0000000000009498      0xf4b build/monitor/decoder/decoder.o
 .debug_info    0x000000000000a3e3      0xef0 build/cubemx_stm32f411/Core/Src/main.o
 .debug_info    0x000000000000b2d3      0x144 build/cubemx_stm32f411/Core/Src/stm32f4xx_it.o
 .debug_info    0x000000000000b417      0xbdb build/cubemx_stm32f411/Core/Src/stm32f4xx_hal_msp.o
 .debug_info    0x000000000000bff2      0x55d build/cubemx_stm32f411/Core/Src/system_stm32f4xx.o
 .debug_info    0x000000000000c54f      0xb8f build/cubemx_stm32f411/Drivers/STM32F4xx_HAL_Driver/Src/stm32f4xx_hal_rcc.o
 .debug_info    0x000000000000d0de      0x9af build/cubemx_stm32f411/Drivers/STM32F4xx_HAL_Driver/Src/stm32f4xx_hal.o
 .debug_info    0x000000000000da8d      0xff1 build/cubemx_stm32f411/Drivers/STM32F4xx_HAL_Driver/Src/stm32f4xx_hal_cortex.o
 .debug_info    0x000000000000ea7e     0x4315 build/cubemx_stm32f411/Drivers/STM32F4xx_HAL_Driver/Src/stm32f4xx_hal_uart.o
 .debug_info    0x0000000000012d93      0x7c9 build/cubemx_stm32f411/Drivers/STM32F4xx_HAL_Driver/Src/stm32f4xx_hal_gpio.o
 .debug_info    0x000000000001355c      0x205 build/cubemx_stm32f411/Drivers/STM32F4xx_HAL_Driver/Src/stm32f4xx_hal_iwdg.o
 .debug_info    0x0000000000013761      0xe9e build/cubemx_stm32f411/Drivers/STM32F4xx_HAL_Driver/Src/stm32f4xx_hal_adc.o
 .debug_info    0x00000000000145ff      0x24d build/version.o

.debug_abbrev   0x0000000000000000     0x38ef
 .debug_abbrev  0x0000000000000000      0x20c build/my_main.o
 .debug_abbrev  0x000000000000020c       0x14 build/mycode.o
 .debug_abbrev  0x0000000000000220      0x17d build/mytest.o
 .debug_abbrev  0x000000000000039d      0x353 build/adc_example.o
 .debug_abbrev  0x00000000000006f0       0xc8 build/monitor/decoder/STM32F411.o
 .debug_abbrev  0x00000000000007b8       0x12 build/cubemx_stm32f411/startup_stm32f411xe.o
 .debug_abbrev  0x00000000000007ca      0x2aa build/syscall.o
 .debug_abbrev  0x0000000000000a74      0x1a3 build/monitor/monitor.o
 .debug_abbrev  0x0000000000000c17      0x335 build/monitor/parser.o
 .debug_abbrev  0x0000000000000f4c      0x256 build/monitor/dump.o
 .debug_abbrev  0x00000000000011a2      0x500 build/monitor/terminal.o
 .debug_abbrev  0x00000000000016a2      0x179 build/monitor/wdog.o
 .debug_abbrev  0x000000000000181b      0x268 build/monitor/tasking.o
 .debug_abbrev  0x0000000000001a83      0x142 build/monitor/default.o
 .debug_abbrev  0x0000000000001bc5      0x2da build/monitor/decoder/decoder.o
 .debug_abbrev  0x0000000000001e9f      0x2b1 build/cubemx_stm32f411/Core/Src/main.o
 .debug_abbrev  0x0000000000002150       0xc0 build/cubemx_stm32f411/Core/Src/stm32f4xx_it.o
 .debug_abbrev  0x0000000000002210      0x1d7 build/cubemx_stm32f411/Core/Src/stm32f4xx_hal_msp.o
 .debug_abbrev  0x00000000000023e7      0x119 build/cubemx_stm32f411/Core/Src/system_stm32f4xx.o
 .debug_abbrev  0x0000000000002500      0x30c build/cubemx_stm32f411/Drivers/STM32F4xx_HAL_Driver/Src/stm32f4xx_hal_rcc.o
 .debug_abbrev  0x000000000000280c      0x299 build/cubemx_stm32f411/Drivers/STM32F4xx_HAL_Driver/Src/stm32f4xx_hal.o
 .debug_abbrev  0x0000000000002aa5      0x36f build/cubemx_stm32f411/Drivers/STM32F4xx_HAL_Driver/Src/stm32f4xx_hal_cortex.o
 .debug_abbrev  0x0000000000002e14      0x3d2 build/cubemx_stm32f411/Drivers/STM32F4xx_HAL_Driver/Src/stm32f4xx_hal_uart.o
 .debug_abbrev  0x00000000000031e6      0x1ed build/cubemx_stm32f411/Drivers/STM32F4xx_HAL_Driver/Src/stm32f4xx_hal_gpio.o
 .debug_abbrev  0x00000000000033d3      0x118 build/cubemx_stm32f411/Drivers/STM32F4xx_HAL_Driver/Src/stm32f4xx_hal_iwdg.o
 .debug_abbrev  0x00000000000034eb      0x29e build/cubemx_stm32f411/Drivers/STM32F4xx_HAL_Driver/Src/stm32f4xx_hal_adc.o
 .debug_abbrev  0x0000000000003789      0x166 build/version.o

.debug_loc      0x0000000000000000     0x891c
 .debug_loc     0x0000000000000000       0x6b build/my_main.o
 .debug_loc     0x000000000000006b       0x67 build/mytest.o
 .debug_loc     0x00000000000000d2      0x269 build/adc_example.o
 .debug_loc     0x000000000000033b      0x2e2 build/syscall.o
 .debug_loc     0x000000000000061d       0xe3 build/monitor/monitor.o
 .debug_loc     0x0000000000000700      0x7db build/monitor/parser.o
 .debug_loc     0x0000000000000edb      0x3ec build/monitor/dump.o
 .debug_loc     0x00000000000012c7      0x759 build/monitor/terminal.o
 .debug_loc     0x0000000000001a20       0x69 build/monitor/wdog.o
 .debug_loc     0x0000000000001a89      0x17c build/monitor/tasking.o
 .debug_loc     0x0000000000001c05       0x5d build/monitor/default.o
 .debug_loc     0x0000000000001c62      0xcd0 build/monitor/decoder/decoder.o
 .debug_loc     0x0000000000002932       0x64 build/cubemx_stm32f411/Core/Src/stm32f4xx_hal_msp.o
 .debug_loc     0x0000000000002996      0x118 build/cubemx_stm32f411/Core/Src/system_stm32f4xx.o
 .debug_loc     0x0000000000002aae      0x4af build/cubemx_stm32f411/Drivers/STM32F4xx_HAL_Driver/Src/stm32f4xx_hal_rcc.o
 .debug_loc     0x0000000000002f5d      0x139 build/cubemx_stm32f411/Drivers/STM32F4xx_HAL_Driver/Src/stm32f4xx_hal.o
 .debug_loc     0x0000000000003096      0x5d3 build/cubemx_stm32f411/Drivers/STM32F4xx_HAL_Driver/Src/stm32f4xx_hal_cortex.o
 .debug_loc     0x0000000000003669     0x447b build/cubemx_stm32f411/Drivers/STM32F4xx_HAL_Driver/Src/stm32f4xx_hal_uart.o
 .debug_loc     0x0000000000007ae4      0x3cc build/cubemx_stm32f411/Drivers/STM32F4xx_HAL_Driver/Src/stm32f4xx_hal_gpio.o
 .debug_loc     0x0000000000007eb0       0x90 build/cubemx_stm32f411/Drivers/STM32F4xx_HAL_Driver/Src/stm32f4xx_hal_iwdg.o
 .debug_loc     0x0000000000007f40      0x9b7 build/cubemx_stm32f411/Drivers/STM32F4xx_HAL_Driver/Src/stm32f4xx_hal_adc.o
 .debug_loc     0x00000000000088f7       0x25 build/version.o

.debug_aranges  0x0000000000000000      0x990
 .debug_aranges
                0x0000000000000000       0x30 build/my_main.o
 .debug_aranges
                0x0000000000000030       0x20 build/mycode.o
 .debug_aranges
                0x0000000000000050       0x28 build/mytest.o
 .debug_aranges
                0x0000000000000078       0x38 build/adc_example.o
 .debug_aranges
                0x00000000000000b0       0x18 build/monitor/decoder/STM32F411.o
 .debug_aranges
                0x00000000000000c8       0x28 build/cubemx_stm32f411/startup_stm32f411xe.o
 .debug_aranges
                0x00000000000000f0       0x70 build/syscall.o
 .debug_aranges
                0x0000000000000160       0x28 build/monitor/monitor.o
 .debug_aranges
                0x0000000000000188       0x78 build/monitor/parser.o
 .debug_aranges
                0x0000000000000200       0x30 build/monitor/dump.o
 .debug_aranges
                0x0000000000000230       0x88 build/monitor/terminal.o
 .debug_aranges
                0x00000000000002b8       0x30 build/monitor/wdog.o
 .debug_aranges
                0x00000000000002e8       0x38 build/monitor/tasking.o
 .debug_aranges
                0x0000000000000320       0x20 build/monitor/default.o
 .debug_aranges
                0x0000000000000340       0x60 build/monitor/decoder/decoder.o
 .debug_aranges
                0x00000000000003a0       0x30 build/cubemx_stm32f411/Core/Src/main.o
 .debug_aranges
                0x00000000000003d0       0x50 build/cubemx_stm32f411/Core/Src/stm32f4xx_it.o
 .debug_aranges
                0x0000000000000420       0x30 build/cubemx_stm32f411/Core/Src/stm32f4xx_hal_msp.o
 .debug_aranges
                0x0000000000000450       0x28 build/cubemx_stm32f411/Core/Src/system_stm32f4xx.o
 .debug_aranges
                0x0000000000000478       0x88 build/cubemx_stm32f411/Drivers/STM32F4xx_HAL_Driver/Src/stm32f4xx_hal_rcc.o
 .debug_aranges
                0x0000000000000500       0xe8 build/cubemx_stm32f411/Drivers/STM32F4xx_HAL_Driver/Src/stm32f4xx_hal.o
 .debug_aranges
                0x00000000000005e8       0xa8 build/cubemx_stm32f411/Drivers/STM32F4xx_HAL_Driver/Src/stm32f4xx_hal_cortex.o
 .debug_aranges
                0x0000000000000690      0x1a0 build/cubemx_stm32f411/Drivers/STM32F4xx_HAL_Driver/Src/stm32f4xx_hal_uart.o
 .debug_aranges
                0x0000000000000830       0x58 build/cubemx_stm32f411/Drivers/STM32F4xx_HAL_Driver/Src/stm32f4xx_hal_gpio.o
 .debug_aranges
                0x0000000000000888       0x28 build/cubemx_stm32f411/Drivers/STM32F4xx_HAL_Driver/Src/stm32f4xx_hal_iwdg.o
 .debug_aranges
                0x00000000000008b0       0xb8 build/cubemx_stm32f411/Drivers/STM32F4xx_HAL_Driver/Src/stm32f4xx_hal_adc.o
 .debug_aranges
                0x0000000000000968       0x28 build/version.o

.debug_ranges   0x0000000000000000      0xc18
 .debug_ranges  0x0000000000000000       0x38 build/my_main.o
 .debug_ranges  0x0000000000000038       0x18 build/mytest.o
 .debug_ranges  0x0000000000000050       0x90 build/adc_example.o
 .debug_ranges  0x00000000000000e0       0x20 build/cubemx_stm32f411/startup_stm32f411xe.o
 .debug_ranges  0x0000000000000100       0x60 build/syscall.o
 .debug_ranges  0x0000000000000160       0x30 build/monitor/monitor.o
 .debug_ranges  0x0000000000000190       0xb0 build/monitor/parser.o
 .debug_ranges  0x0000000000000240       0x38 build/monitor/dump.o
 .debug_ranges  0x0000000000000278       0xc0 build/monitor/terminal.o
 .debug_ranges  0x0000000000000338       0x20 build/monitor/wdog.o
 .debug_ranges  0x0000000000000358       0x58 build/monitor/tasking.o
 .debug_ranges  0x00000000000003b0       0x10 build/monitor/default.o
 .debug_ranges  0x00000000000003c0       0xb8 build/monitor/decoder/decoder.o
 .debug_ranges  0x0000000000000478      0x100 build/cubemx_stm32f411/Core/Src/main.o
 .debug_ranges  0x0000000000000578       0x40 build/cubemx_stm32f411/Core/Src/stm32f4xx_it.o
 .debug_ranges  0x00000000000005b8       0x68 build/cubemx_stm32f411/Core/Src/stm32f4xx_hal_msp.o
 .debug_ranges  0x0000000000000620       0x18 build/cubemx_stm32f411/Core/Src/system_stm32f4xx.o
 .debug_ranges  0x0000000000000638       0xb0 build/cubemx_stm32f411/Drivers/STM32F4xx_HAL_Driver/Src/stm32f4xx_hal_rcc.o
 .debug_ranges  0x00000000000006e8       0xd8 build/cubemx_stm32f411/Drivers/STM32F4xx_HAL_Driver/Src/stm32f4xx_hal.o
 .debug_ranges  0x00000000000007c0      0x150 build/cubemx_stm32f411/Drivers/STM32F4xx_HAL_Driver/Src/stm32f4xx_hal_cortex.o
 .debug_ranges  0x0000000000000910      0x1a8 build/cubemx_stm32f411/Drivers/STM32F4xx_HAL_Driver/Src/stm32f4xx_hal_uart.o
 .debug_ranges  0x0000000000000ab8       0x68 build/cubemx_stm32f411/Drivers/STM32F4xx_HAL_Driver/Src/stm32f4xx_hal_gpio.o
 .debug_ranges  0x0000000000000b20       0x18 build/cubemx_stm32f411/Drivers/STM32F4xx_HAL_Driver/Src/stm32f4xx_hal_iwdg.o
 .debug_ranges  0x0000000000000b38       0xc8 build/cubemx_stm32f411/Drivers/STM32F4xx_HAL_Driver/Src/stm32f4xx_hal_adc.o
 .debug_ranges  0x0000000000000c00       0x18 build/version.o

.debug_line     0x0000000000000000     0xabab
 .debug_line    0x0000000000000000      0x224 build/my_main.o
 .debug_line    0x0000000000000224       0x55 build/mycode.o
 .debug_line    0x0000000000000279      0x144 build/mytest.o
 .debug_line    0x00000000000003bd      0x47e build/adc_example.o
 .debug_line    0x000000000000083b       0xb8 build/monitor/decoder/STM32F411.o
 .debug_line    0x00000000000008f3       0x88 build/cubemx_stm32f411/startup_stm32f411xe.o
 .debug_line    0x000000000000097b      0x316 build/syscall.o
 .debug_line    0x0000000000000c91      0x18e build/monitor/monitor.o
 .debug_line    0x0000000000000e1f      0x71a build/monitor/parser.o
 .debug_line    0x0000000000001539      0x2c7 build/monitor/dump.o
 .debug_line    0x0000000000001800      0x82c build/monitor/terminal.o
 .debug_line    0x000000000000202c      0x25a build/monitor/wdog.o
 .debug_line    0x0000000000002286      0x2a7 build/monitor/tasking.o
 .debug_line    0x000000000000252d      0x131 build/monitor/default.o
 .debug_line    0x000000000000265e      0x762 build/monitor/decoder/decoder.o
 .debug_line    0x0000000000002dc0      0x491 build/cubemx_stm32f411/Core/Src/main.o
 .debug_line    0x0000000000003251      0x180 build/cubemx_stm32f411/Core/Src/stm32f4xx_it.o
 .debug_line    0x00000000000033d1      0x284 build/cubemx_stm32f411/Core/Src/stm32f4xx_hal_msp.o
 .debug_line    0x0000000000003655      0x20f build/cubemx_stm32f411/Core/Src/system_stm32f4xx.o
 .debug_line    0x0000000000003864      0xae2 build/cubemx_stm32f411/Drivers/STM32F4xx_HAL_Driver/Src/stm32f4xx_hal_rcc.o
 .debug_line    0x0000000000004346      0x567 build/cubemx_stm32f411/Drivers/STM32F4xx_HAL_Driver/Src/stm32f4xx_hal.o
 .debug_line    0x00000000000048ad      0x7a3 build/cubemx_stm32f411/Drivers/STM32F4xx_HAL_Driver/Src/stm32f4xx_hal_cortex.o
 .debug_line    0x0000000000005050     0x41bc build/cubemx_stm32f411/Drivers/STM32F4xx_HAL_Driver/Src/stm32f4xx_hal_uart.o
 .debug_line    0x000000000000920c      0x6f8 build/cubemx_stm32f411/Drivers/STM32F4xx_HAL_Driver/Src/stm32f4xx_hal_gpio.o
 .debug_line    0x0000000000009904      0x238 build/cubemx_stm32f411/Drivers/STM32F4xx_HAL_Driver/Src/stm32f4xx_hal_iwdg.o
 .debug_line    0x0000000000009b3c      0xf5d build/cubemx_stm32f411/Drivers/STM32F4xx_HAL_Driver/Src/stm32f4xx_hal_adc.o
 .debug_line    0x000000000000aa99      0x112 build/version.o

.debug_str      0x0000000000000000     0x6106
 .debug_str     0x0000000000000000      0x34d build/my_main.o
                                        0x3ae (size before relaxing)
 .debug_str     0x000000000000034d       0x17 build/mycode.o
                                         0x57 (size before relaxing)
 .debug_str     0x0000000000000364       0x40 build/mytest.o
                                        0x30d (size before relaxing)
 .debug_str     0x00000000000003a4      0x9c2 build/adc_example.o
                                        0xd6e (size before relaxing)
 .debug_str     0x0000000000000d66     0x2cb9 build/monitor/decoder/STM32F411.o
                                       0x2e9b (size before relaxing)
 .debug_str     0x0000000000003a1f       0x27 build/cubemx_stm32f411/startup_stm32f411xe.o
                                         0x75 (size before relaxing)
 .debug_str     0x0000000000003a46      0x1e2 build/syscall.o
                                        0x763 (size before relaxing)
 .debug_str     0x0000000000003c28       0x2d build/monitor/monitor.o
                                        0x31b (size before relaxing)
 .debug_str     0x0000000000003c55      0x20f build/monitor/parser.o
                                        0x592 (size before relaxing)
 .debug_str     0x0000000000003e64       0x50 build/monitor/dump.o
                                        0x36f (size before relaxing)
 .debug_str     0x0000000000003eb4      0x654 build/monitor/terminal.o
                                        0xd63 (size before relaxing)
 .debug_str     0x0000000000004508       0x6e build/monitor/wdog.o
                                        0x375 (size before relaxing)
 .debug_str     0x0000000000004576       0x7a build/monitor/tasking.o
                                        0x3db (size before relaxing)
 .debug_str     0x00000000000045f0       0x87 build/monitor/default.o
                                        0x25f (size before relaxing)
 .debug_str     0x0000000000004677       0xe9 build/monitor/decoder/decoder.o
                                        0x4e5 (size before relaxing)
 .debug_str     0x0000000000004760      0x3a7 build/cubemx_stm32f411/Core/Src/main.o
                                        0xa13 (size before relaxing)
 .debug_str     0x0000000000004b07       0xcd build/cubemx_stm32f411/Core/Src/stm32f4xx_it.o
                                        0x25a (size before relaxing)
 .debug_str     0x0000000000004bd4       0xcd build/cubemx_stm32f411/Core/Src/stm32f4xx_hal_msp.o
                                        0xbdb (size before relaxing)
 .debug_str     0x0000000000004ca1       0x95 build/cubemx_stm32f411/Core/Src/system_stm32f4xx.o
                                        0x397 (size before relaxing)
 .debug_str     0x0000000000004d36      0x203 build/cubemx_stm32f411/Drivers/STM32F4xx_HAL_Driver/Src/stm32f4xx_hal_rcc.o
                                        0x728 (size before relaxing)
 .debug_str     0x0000000000004f39      0x2e0 build/cubemx_stm32f411/Drivers/STM32F4xx_HAL_Driver/Src/stm32f4xx_hal.o
                                        0xa24 (size before relaxing)
 .debug_str     0x0000000000005219      0x424 build/cubemx_stm32f411/Drivers/STM32F4xx_HAL_Driver/Src/stm32f4xx_hal_cortex.o
                                        0xae4 (size before relaxing)
 .debug_str     0x000000000000563d      0x651 build/cubemx_stm32f411/Drivers/STM32F4xx_HAL_Driver/Src/stm32f4xx_hal_uart.o
                                        0xd69 (size before relaxing)
 .debug_str     0x0000000000005c8e      0x136 build/cubemx_stm32f411/Drivers/STM32F4xx_HAL_Driver/Src/stm32f4xx_hal_gpio.o
                                        0x502 (size before relaxing)
 .debug_str     0x0000000000005dc4       0x47 build/cubemx_stm32f411/Drivers/STM32F4xx_HAL_Driver/Src/stm32f4xx_hal_iwdg.o
                                        0x298 (size before relaxing)
 .debug_str     0x0000000000005e0b      0x28e build/cubemx_stm32f411/Drivers/STM32F4xx_HAL_Driver/Src/stm32f4xx_hal_adc.o
                                        0x963 (size before relaxing)
 .debug_str     0x0000000000006099       0x6d build/version.o
                                        0x32e (size before relaxing)

.comment        0x0000000000000000       0x4d
 .comment       0x0000000000000000       0x4d build/my_main.o
                                         0x4e (size before relaxing)
 .comment       0x000000000000004d       0x4e build/mytest.o
 .comment       0x000000000000004d       0x4e build/adc_example.o
 .comment       0x000000000000004d       0x4e build/monitor/decoder/STM32F411.o
 .comment       0x000000000000004d       0x4e build/syscall.o
 .comment       0x000000000000004d       0x4e build/monitor/monitor.o
 .comment       0x000000000000004d       0x4e build/monitor/parser.o
 .comment       0x000000000000004d       0x4e build/monitor/dump.o
 .comment       0x000000000000004d       0x4e build/monitor/terminal.o
 .comment       0x000000000000004d       0x4e build/monitor/wdog.o
 .comment       0x000000000000004d       0x4e build/monitor/tasking.o
 .comment       0x000000000000004d       0x4e build/monitor/default.o
 .comment       0x000000000000004d       0x4e build/monitor/decoder/decoder.o
 .comment       0x000000000000004d       0x4e build/cubemx_stm32f411/Core/Src/main.o
 .comment       0x000000000000004d       0x4e build/cubemx_stm32f411/Core/Src/stm32f4xx_it.o
 .comment       0x000000000000004d       0x4e build/cubemx_stm32f411/Core/Src/stm32f4xx_hal_msp.o
 .comment       0x000000000000004d       0x4e build/cubemx_stm32f411/Core/Src/system_stm32f4xx.o
 .comment       0x000000000000004d       0x4e build/cubemx_stm32f411/Drivers/STM32F4xx_HAL_Driver/Src/stm32f4xx_hal_rcc.o
 .comment       0x000000000000004d       0x4e build/cubemx_stm32f411/Drivers/STM32F4xx_HAL_Driver/Src/stm32f4xx_hal.o
 .comment       0x000000000000004d       0x4e build/cubemx_stm32f411/Drivers/STM32F4xx_HAL_Driver/Src/stm32f4xx_hal_cortex.o
 .comment       0x000000000000004d       0x4e build/cubemx_stm32f411/Drivers/STM32F4xx_HAL_Driver/Src/stm32f4xx_hal_uart.o
 .comment       0x000000000000004d       0x4e build/cubemx_stm32f411/Drivers/STM32F4xx_HAL_Driver/Src/stm32f4xx_hal_gpio.o
 .comment       0x000000000000004d       0x4e build/cubemx_stm32f411/Drivers/STM32F4xx_HAL_Driver/Src/stm32f4xx_hal_iwdg.o
 .comment       0x000000000000004d       0x4e build/cubemx_stm32f411/Drivers/STM32F4xx_HAL_Driver/Src/stm32f4xx_hal_adc.o
 .comment       0x000000000000004d       0x4e build/version.o

.debug_frame    0x0000000000000000     0x2b3c
 .debug_frame   0x0000000000000000       0x68 build/my_main.o
 .debug_frame   0x0000000000000068       0x38 build/mytest.o
 .debug_frame   0x00000000000000a0       0xa0 build/adc_example.o
 .debug_frame   0x0000000000000140       0xd8 build/syscall.o
 .debug_frame   0x0000000000000218       0x50 build/monitor/monitor.o
 .debug_frame   0x0000000000000268      0x160 build/monitor/parser.o
 .debug_frame   0x00000000000003c8       0x94 build/monitor/dump.o
 .debug_frame   0x000000000000045c      0x1a8 build/monitor/terminal.o
 .debug_frame   0x0000000000000604       0x54 build/monitor/wdog.o
 .debug_frame   0x0000000000000658       0x84 build/monitor/tasking.o
 .debug_frame   0x00000000000006dc       0x28 build/monitor/default.o
 .debug_frame   0x0000000000000704      0x14c build/monitor/decoder/decoder.o
 .debug_frame   0x0000000000000850       0x58 build/cubemx_stm32f411/Core/Src/main.o
 .debug_frame   0x00000000000008a8       0xac build/cubemx_stm32f411/Core/Src/stm32f4xx_it.o
 .debug_frame   0x0000000000000954       0x68 build/cubemx_stm32f411/Core/Src/stm32f4xx_hal_msp.o
 .debug_frame   0x00000000000009bc       0x30 build/cubemx_stm32f411/Core/Src/system_stm32f4xx.o
 .debug_frame   0x00000000000009ec      0x13c build/cubemx_stm32f411/Drivers/STM32F4xx_HAL_Driver/Src/stm32f4xx_hal_rcc.o
 .debug_frame   0x0000000000000b28      0x1f4 build/cubemx_stm32f411/Drivers/STM32F4xx_HAL_Driver/Src/stm32f4xx_hal.o
 .debug_frame   0x0000000000000d1c      0x158 build/cubemx_stm32f411/Drivers/STM32F4xx_HAL_Driver/Src/stm32f4xx_hal_cortex.o
 .debug_frame   0x0000000000000e74      0x588 build/cubemx_stm32f411/Drivers/STM32F4xx_HAL_Driver/Src/stm32f4xx_hal_uart.o
 .debug_frame   0x00000000000013fc       0xd4 build/cubemx_stm32f411/Drivers/STM32F4xx_HAL_Driver/Src/stm32f4xx_hal_gpio.o
 .debug_frame   0x00000000000014d0       0x3c build/cubemx_stm32f411/Drivers/STM32F4xx_HAL_Driver/Src/stm32f4xx_hal_iwdg.o
 .debug_frame   0x000000000000150c      0x24c build/cubemx_stm32f411/Drivers/STM32F4xx_HAL_Driver/Src/stm32f4xx_hal_adc.o
 .debug_frame   0x0000000000001758       0x38 build/version.o
 .debug_frame   0x0000000000001790       0xac /usr/local/bin/../lib/gcc/arm-none-eabi/10.2.1/thumb/v7e-m+fp/hard/libgcc.a(_arm_addsubdf3.o)
 .debug_frame   0x000000000000183c       0x24 /usr/local/bin/../lib/gcc/arm-none-eabi/10.2.1/thumb/v7e-m+fp/hard/libgcc.a(_arm_fixdfsi.o)
 .debug_frame   0x0000000000001860       0x2c /usr/local/bin/../lib/gcc/arm-none-eabi/10.2.1/thumb/v7e-m+fp/hard/libgcc.a(_aeabi_uldivmod.o)
 .debug_frame   0x000000000000188c       0x34 /usr/local/bin/../lib/gcc/arm-none-eabi/10.2.1/thumb/v7e-m+fp/hard/libgcc.a(_udivmoddi4.o)
 .debug_frame   0x00000000000018c0       0x20 /usr/local/bin/../lib/gcc/arm-none-eabi/10.2.1/../../../../arm-none-eabi/lib/thumb/v7e-m+fp/hard/libg_nano.a(lib_a-errno.o)
 .debug_frame   0x00000000000018e0       0x5c /usr/local/bin/../lib/gcc/arm-none-eabi/10.2.1/../../../../arm-none-eabi/lib/thumb/v7e-m+fp/hard/libg_nano.a(lib_a-fflush.o)
 .debug_frame   0x000000000000193c      0x14c /usr/local/bin/../lib/gcc/arm-none-eabi/10.2.1/../../../../arm-none-eabi/lib/thumb/v7e-m+fp/hard/libg_nano.a(lib_a-findfp.o)
 .debug_frame   0x0000000000001a88       0x54 /usr/local/bin/../lib/gcc/arm-none-eabi/10.2.1/../../../../arm-none-eabi/lib/thumb/v7e-m+fp/hard/libg_nano.a(lib_a-fwalk.o)
 .debug_frame   0x0000000000001adc       0x2c /usr/local/bin/../lib/gcc/arm-none-eabi/10.2.1/../../../../arm-none-eabi/lib/thumb/v7e-m+fp/hard/libg_nano.a(lib_a-init.o)
 .debug_frame   0x0000000000001b08       0xb0 /usr/local/bin/../lib/gcc/arm-none-eabi/10.2.1/../../../../arm-none-eabi/lib/thumb/v7e-m+fp/hard/libg_nano.a(lib_a-lock.o)
 .debug_frame   0x0000000000001bb8       0x20 /usr/local/bin/../lib/gcc/arm-none-eabi/10.2.1/../../../../arm-none-eabi/lib/thumb/v7e-m+fp/hard/libg_nano.a(lib_a-memset.o)
 .debug_frame   0x0000000000001bd8       0x38 /usr/local/bin/../lib/gcc/arm-none-eabi/10.2.1/../../../../arm-none-eabi/lib/thumb/v7e-m+fp/hard/libg_nano.a(lib_a-nano-freer.o)
 .debug_frame   0x0000000000001c10       0x30 /usr/local/bin/../lib/gcc/arm-none-eabi/10.2.1/../../../../arm-none-eabi/lib/thumb/v7e-m+fp/hard/libg_nano.a(lib_a-nano-mallocr.o)
 .debug_frame   0x0000000000001c40       0xa0 /usr/local/bin/../lib/gcc/arm-none-eabi/10.2.1/../../../../arm-none-eabi/lib/thumb/v7e-m+fp/hard/libg_nano.a(lib_a-nano-vfprintf_float.o)
 .debug_frame   0x0000000000001ce0       0x60 /usr/local/bin/../lib/gcc/arm-none-eabi/10.2.1/../../../../arm-none-eabi/lib/thumb/v7e-m+fp/hard/libg_nano.a(lib_a-nano-vfprintf_i.o)
 .debug_frame   0x0000000000001d40       0x74 /usr/local/bin/../lib/gcc/arm-none-eabi/10.2.1/../../../../arm-none-eabi/lib/thumb/v7e-m+fp/hard/libg_nano.a(lib_a-printf.o)
 .debug_frame   0x0000000000001db4       0x50 /usr/local/bin/../lib/gcc/arm-none-eabi/10.2.1/../../../../arm-none-eabi/lib/thumb/v7e-m+fp/hard/libg_nano.a(lib_a-putchar.o)
 .debug_frame   0x0000000000001e04       0x3c /usr/local/bin/../lib/gcc/arm-none-eabi/10.2.1/../../../../arm-none-eabi/lib/thumb/v7e-m+fp/hard/libg_nano.a(lib_a-puts.o)
 .debug_frame   0x0000000000001e40       0x38 /usr/local/bin/../lib/gcc/arm-none-eabi/10.2.1/../../../../arm-none-eabi/lib/thumb/v7e-m+fp/hard/libg_nano.a(lib_a-setvbuf.o)
 .debug_frame   0x0000000000001e78       0x88 /usr/local/bin/../lib/gcc/arm-none-eabi/10.2.1/../../../../arm-none-eabi/lib/thumb/v7e-m+fp/hard/libg_nano.a(lib_a-stdio.o)
 .debug_frame   0x0000000000001f00       0x2c /usr/local/bin/../lib/gcc/arm-none-eabi/10.2.1/../../../../arm-none-eabi/lib/thumb/v7e-m+fp/hard/libg_nano.a(lib_a-strcasecmp.o)
 .debug_frame   0x0000000000001f2c       0x20 /usr/local/bin/../lib/gcc/arm-none-eabi/10.2.1/../../../../arm-none-eabi/lib/thumb/v7e-m+fp/hard/libg_nano.a(lib_a-strcpy.o)
 .debug_frame   0x0000000000001f4c       0x38 /usr/local/bin/../lib/gcc/arm-none-eabi/10.2.1/../../../../arm-none-eabi/lib/thumb/v7e-m+fp/hard/libg_nano.a(lib_a-strtok.o)
 .debug_frame   0x0000000000001f84       0x40 /usr/local/bin/../lib/gcc/arm-none-eabi/10.2.1/../../../../arm-none-eabi/lib/thumb/v7e-m+fp/hard/libg_nano.a(lib_a-strtok_r.o)
 .debug_frame   0x0000000000001fc4       0x64 /usr/local/bin/../lib/gcc/arm-none-eabi/10.2.1/../../../../arm-none-eabi/lib/thumb/v7e-m+fp/hard/libg_nano.a(lib_a-strtoul.o)
 .debug_frame   0x0000000000002028       0x4c /usr/local/bin/../lib/gcc/arm-none-eabi/10.2.1/../../../../arm-none-eabi/lib/thumb/v7e-m+fp/hard/libg_nano.a(lib_a-vsnprintf.o)
 .debug_frame   0x0000000000002074       0x40 /usr/local/bin/../lib/gcc/arm-none-eabi/10.2.1/../../../../arm-none-eabi/lib/thumb/v7e-m+fp/hard/libg_nano.a(lib_a-wbuf.o)
 .debug_frame   0x00000000000020b4       0x2c /usr/local/bin/../lib/gcc/arm-none-eabi/10.2.1/../../../../arm-none-eabi/lib/thumb/v7e-m+fp/hard/libg_nano.a(lib_a-wsetup.o)
 .debug_frame   0x00000000000020e0       0x40 /usr/local/bin/../lib/gcc/arm-none-eabi/10.2.1/../../../../arm-none-eabi/lib/thumb/v7e-m+fp/hard/libg_nano.a(lib_a-assert.o)
 .debug_frame   0x0000000000002120       0x88 /usr/local/bin/../lib/gcc/arm-none-eabi/10.2.1/../../../../arm-none-eabi/lib/thumb/v7e-m+fp/hard/libg_nano.a(lib_a-dtoa.o)
 .debug_frame   0x00000000000021a8       0x64 /usr/local/bin/../lib/gcc/arm-none-eabi/10.2.1/../../../../arm-none-eabi/lib/thumb/v7e-m+fp/hard/libg_nano.a(lib_a-fprintf.o)
 .debug_frame   0x000000000000220c       0x48 /usr/local/bin/../lib/gcc/arm-none-eabi/10.2.1/../../../../arm-none-eabi/lib/thumb/v7e-m+fp/hard/libg_nano.a(lib_a-locale.o)
 .debug_frame   0x0000000000002254       0x40 /usr/local/bin/../lib/gcc/arm-none-eabi/10.2.1/../../../../arm-none-eabi/lib/thumb/v7e-m+fp/hard/libg_nano.a(lib_a-localeconv.o)
 .debug_frame   0x0000000000002294       0x58 /usr/local/bin/../lib/gcc/arm-none-eabi/10.2.1/../../../../arm-none-eabi/lib/thumb/v7e-m+fp/hard/libg_nano.a(lib_a-makebuf.o)
 .debug_frame   0x00000000000022ec       0x30 /usr/local/bin/../lib/gcc/arm-none-eabi/10.2.1/../../../../arm-none-eabi/lib/thumb/v7e-m+fp/hard/libg_nano.a(lib_a-malloc.o)
 .debug_frame   0x000000000000231c       0x48 /usr/local/bin/../lib/gcc/arm-none-eabi/10.2.1/../../../../arm-none-eabi/lib/thumb/v7e-m+fp/hard/libg_nano.a(lib_a-mbtowc_r.o)
 .debug_frame   0x0000000000002364       0x28 /usr/local/bin/../lib/gcc/arm-none-eabi/10.2.1/../../../../arm-none-eabi/lib/thumb/v7e-m+fp/hard/libg_nano.a(lib_a-memcpy-stub.o)
 .debug_frame   0x000000000000238c       0x30 /usr/local/bin/../lib/gcc/arm-none-eabi/10.2.1/../../../../arm-none-eabi/lib/thumb/v7e-m+fp/hard/libg_nano.a(lib_a-mlock.o)
 .debug_frame   0x00000000000023bc      0x25c /usr/local/bin/../lib/gcc/arm-none-eabi/10.2.1/../../../../arm-none-eabi/lib/thumb/v7e-m+fp/hard/libg_nano.a(lib_a-mprec.o)
 .debug_frame   0x0000000000002618       0x2c /usr/local/bin/../lib/gcc/arm-none-eabi/10.2.1/../../../../arm-none-eabi/lib/thumb/v7e-m+fp/hard/libg_nano.a(lib_a-nano-callocr.o)
 .debug_frame   0x0000000000002644       0x90 /usr/local/bin/../lib/gcc/arm-none-eabi/10.2.1/../../../../arm-none-eabi/lib/thumb/v7e-m+fp/hard/libg_nano.a(lib_a-nano-svfprintf.o)
 .debug_frame   0x00000000000026d4       0xac /usr/local/bin/../lib/gcc/arm-none-eabi/10.2.1/../../../../arm-none-eabi/lib/thumb/v7e-m+fp/hard/libg_nano.a(lib_a-nano-vfprintf.o)
 .debug_frame   0x0000000000002780       0x3c /usr/local/bin/../lib/gcc/arm-none-eabi/10.2.1/../../../../arm-none-eabi/lib/thumb/v7e-m+fp/hard/libg_nano.a(lib_a-putc.o)
 .debug_frame   0x00000000000027bc       0x3c /usr/local/bin/../lib/gcc/arm-none-eabi/10.2.1/../../../../arm-none-eabi/lib/thumb/v7e-m+fp/hard/libg_nano.a(lib_a-wctomb_r.o)
 .debug_frame   0x00000000000027f8       0x28 /usr/local/bin/../lib/gcc/arm-none-eabi/10.2.1/../../../../arm-none-eabi/lib/thumb/v7e-m+fp/hard/libg_nano.a(lib_a-abort.o)
 .debug_frame   0x0000000000002820       0x28 /usr/local/bin/../lib/gcc/arm-none-eabi/10.2.1/../../../../arm-none-eabi/lib/thumb/v7e-m+fp/hard/libg_nano.a(lib_a-memmove.o)
 .debug_frame   0x0000000000002848       0x3c /usr/local/bin/../lib/gcc/arm-none-eabi/10.2.1/../../../../arm-none-eabi/lib/thumb/v7e-m+fp/hard/libg_nano.a(lib_a-nano-reallocr.o)
 .debug_frame   0x0000000000002884       0xcc /usr/local/bin/../lib/gcc/arm-none-eabi/10.2.1/../../../../arm-none-eabi/lib/thumb/v7e-m+fp/hard/libg_nano.a(lib_a-signal.o)
 .debug_frame   0x0000000000002950       0x3c /usr/local/bin/../lib/gcc/arm-none-eabi/10.2.1/../../../../arm-none-eabi/lib/thumb/v7e-m+fp/hard/libg_nano.a(lib_a-signalr.o)
 .debug_frame   0x000000000000298c       0x20 /usr/local/bin/../lib/gcc/arm-none-eabi/10.2.1/../../../../arm-none-eabi/lib/thumb/v7e-m+fp/hard/libg_nano.a(lib_a-nano-msizer.o)
 .debug_frame   0x00000000000029ac       0x5c /usr/local/bin/../lib/gcc/arm-none-eabi/10.2.1/../../../../arm-none-eabi/lib/thumb/v7e-m+fp/hard/libg_nano.a(lib_a-reent.o)
 .debug_frame   0x0000000000002a08       0x50 /usr/local/bin/../lib/gcc/arm-none-eabi/10.2.1/thumb/v7e-m+fp/hard/libgcc.a(_arm_muldivdf3.o)
 .debug_frame   0x0000000000002a58       0xc4 /usr/local/bin/../lib/gcc/arm-none-eabi/10.2.1/thumb/v7e-m+fp/hard/libgcc.a(_arm_cmpdf2.o)
 .debug_frame   0x0000000000002b1c       0x20 /usr/local/bin/../lib/gcc/arm-none-eabi/10.2.1/thumb/v7e-m+fp/hard/libgcc.a(_arm_unorddf2.o)
